Certificate:
    Data:
        Version: 3 (0x2)
        Serial Number: 4107 (0x100b)
    Signature Algorithm: sha256WithRSAEncryption
        Issuer: O=SJ, CN=SJCA
        Validity
            Not Before: Sep 29 14:09:48 2016 GMT
            Not After : Sep 29 14:09:48 2017 GMT
        Subject: O=SJ/dnQualifier=c2ba04eb-b304-4cc2-90e8-16b0c9715e6c, CN=SJ++++Sthlm_Camera_Sensehat
        Subject Public Key Info:
            Public Key Algorithm: id-ecPublicKey
                Public-Key: (256 bit)
                pub: 
                    04:ab:f0:a3:48:22:dd:ec:45:05:f8:f5:cd:2a:b7:
                    84:49:91:8e:fe:56:b8:eb:d4:0e:1e:d0:89:2b:89:
                    cf:2b:75:d0:dd:f4:5a:8a:57:1b:59:b0:73:3b:ce:
                    95:85:98:2a:ce:5d:6b:4d:0c:09:b9:40:94:14:bc:
                    8e:95:cc:46:f4
                ASN1 OID: prime256v1
        X509v3 extensions:
            X509v3 Subject Key Identifier: 
                CC:D7:B4:8E:5F:C1:C4:B9:BF:E5:3E:25:68:E4:06:FB:F8:13:94:64
            X509v3 Authority Key Identifier: 
                DirName:/O=SJ/CN=SJCA
                serial:94:07:BE:86:FA:F6:6A:26

            X509v3 Basic Constraints: 
                CA:FALSE
    Signature Algorithm: sha256WithRSAEncryption
         73:6c:5c:c0:28:a0:b2:78:0b:d8:6d:7b:bf:ed:32:e5:55:8b:
         bb:2a:58:03:98:03:8e:5a:e1:40:a8:57:a4:42:36:21:68:a0:
         5d:fe:37:94:37:dd:61:ab:ca:e4:76:ff:0a:23:50:d6:85:23:
         7d:e1:dc:ce:90:d1:96:dc:b0:de:dd:87:ca:1c:ab:c3:9b:ee:
         d5:04:6c:0e:11:a7:16:0c:29:82:a2:e8:eb:74:ec:a0:36:84:
         b0:92:3d:7d:90:a6:2a:33:21:22:92:ea:0a:dc:09:d4:5c:c4:
         ff:fd:a7:4b:46:59:f3:8c:b2:4b:e9:24:3c:20:e1:df:ba:a8:
         34:21:83:9c:e0:26:04:88:16:98:6e:d3:08:30:57:fa:dd:0e:
         e4:6e:87:dd:74:2b:42:d4:14:34:07:02:83:41:69:be:7a:3b:
         0a:f9:35:03:da:d6:8b:0d:35:6c:de:dd:7e:90:7a:aa:20:47:
         87:76:ff:94:da:8f:2b:16:d8:f4:d0:df:b4:f8:4e:19:f4:e5:
         71:35:35:d7:c2:93:63:be:d2:ea:10:b7:16:1d:97:9d:42:42:
         af:d8:fd:c2:3c:94:40:d0:77:7a:b3:a8:27:7e:5f:08:7e:26:
         df:da:ac:5a:e0:ce:85:14:98:bc:d0:25:8e:16:73:de:e0:e9:
         26:c9:30:4d
-----BEGIN CERTIFICATE-----
MIICkzCCAXugAwIBAgICEAswDQYJKoZIhvcNAQELBQAwHDELMAkGA1UEChMCU0ox
DTALBgNVBAMTBFNKQ0EwHhcNMTYwOTI5MTQwOTQ4WhcNMTcwOTI5MTQwOTQ4WjBi
MQswCQYDVQQKDAJTSjEtMCsGA1UELhMkYzJiYTA0ZWItYjMwNC00Y2MyLTkwZTgt
MTZiMGM5NzE1ZTZjMSQwIgYDVQQDDBtTSisrKytTdGhsbV9DYW1lcmFfU2Vuc2Vo
YXQwWTATBgcqhkjOPQIBBggqhkjOPQMBBwNCAASr8KNIIt3sRQX49c0qt4RJkY7+
Vrjr1A4e0Ikric8rddDd9FqKVxtZsHM7zpWFmCrOXWtNDAm5QJQUvI6VzEb0o2Qw
YjAdBgNVHQ4EFgQUzNe0jl/BxLm/5T4laOQG+/gTlGQwNgYDVR0jBC8wLaEgpB4w
HDELMAkGA1UEChMCU0oxDTALBgNVBAMTBFNKQ0GCCQCUB76G+vZqJjAJBgNVHRME
AjAAMA0GCSqGSIb3DQEBCwUAA4IBAQBzbFzAKKCyeAvYbXu/7TLlVYu7KlgDmAOO
WuFAqFekQjYhaKBd/jeUN91hq8rkdv8KI1DWhSN94dzOkNGW3LDe3YfKHKvDm+7V
BGwOEacWDCmCoujrdOygNoSwkj19kKYqMyEikuoK3AnUXMT//adLRlnzjLJL6SQ8
IOHfuqg0IYOc4CYEiBaYbtMIMFf63Q7kbofddCtC1BQ0BwKDQWm+ejsK+TUD2taL
DTVs3t1+kHqqIEeHdv+U2o8rFtj00N+0+E4Z9OVxNTXXwpNjvtLqELcWHZedQkKv
2P3CPJRA0Hd6s6gnfl8Ifibf2qxa4M6FFJi80CWOFnPe4OkmyTBN
-----END CERTIFICATE-----
