Certificate:
    Data:
        Version: 3 (0x2)
        Serial Number: 4101 (0x1005)
    Signature Algorithm: sha256WithRSAEncryption
        Issuer: O=SJ, CN=SJCA
        Validity
            Not Before: Sep 29 14:09:48 2016 GMT
            Not After : Sep 29 14:09:48 2017 GMT
        Subject: O=SJ/dnQualifier=102bbc4c-e9e0-414a-97c1-a78a7203e1a8, CN=SJ++++Lund_Camera_Sensehat
        Subject Public Key Info:
            Public Key Algorithm: id-ecPublicKey
                Public-Key: (256 bit)
                pub: 
                    04:a9:9a:56:78:5e:1c:63:d7:b7:2c:d6:4a:37:e5:
                    2b:70:95:6d:56:d2:4f:f0:04:e2:c0:18:11:e7:88:
                    9c:5a:c2:57:21:ce:7a:3c:ec:de:23:bd:a7:62:9a:
                    22:c6:0c:68:cf:5d:af:b5:3d:bf:a7:80:31:1d:4d:
                    d8:7d:d3:1b:61
                ASN1 OID: prime256v1
        X509v3 extensions:
            X509v3 Subject Key Identifier: 
                55:2D:71:98:98:50:CE:CE:C1:6D:87:71:1C:BE:E4:91:12:11:A2:53
            X509v3 Authority Key Identifier: 
                DirName:/O=SJ/CN=SJCA
                serial:94:07:BE:86:FA:F6:6A:26

            X509v3 Basic Constraints: 
                CA:FALSE
    Signature Algorithm: sha256WithRSAEncryption
         56:ef:76:33:97:0b:88:8d:c3:4f:0c:88:4b:87:9e:c7:a6:9b:
         55:bd:a5:db:7e:0a:4f:f3:f2:11:74:63:4c:5b:a8:37:a9:81:
         02:21:00:56:5b:fd:1e:93:83:33:35:34:00:ae:36:d9:a5:9c:
         a7:7c:02:ed:74:30:78:0b:66:52:c1:73:bb:9c:32:6e:dc:e6:
         3c:c6:2e:4f:f2:7c:94:0f:57:82:0b:e1:bc:13:65:6c:77:68:
         f9:d1:95:dd:90:b2:ae:36:d5:f9:5b:ae:bb:89:c9:bf:23:9c:
         f8:3d:3c:de:28:db:57:4a:78:66:c2:84:fd:af:27:16:51:3d:
         26:e0:00:0a:0e:71:89:e8:bd:31:4f:d1:d2:ad:9b:a5:67:a0:
         67:bf:8b:a3:44:54:09:6f:b5:16:79:66:46:df:aa:1b:8e:27:
         10:d3:df:0f:40:86:d7:d3:ba:a5:9b:7a:f6:ba:22:bd:34:03:
         08:91:62:02:23:35:f7:59:9b:a2:92:70:39:19:4e:da:5f:f6:
         9c:fd:3b:d6:97:43:d2:51:59:f8:34:fd:b1:72:8d:ac:b6:1f:
         39:36:ea:3c:8e:0b:f8:c2:ae:5e:c5:85:b8:bd:1c:02:81:db:
         3d:73:f3:c4:42:aa:6d:43:5c:ff:f0:15:2d:5e:59:3d:42:db:
         e5:6a:59:aa
-----BEGIN CERTIFICATE-----
MIICkjCCAXqgAwIBAgICEAUwDQYJKoZIhvcNAQELBQAwHDELMAkGA1UEChMCU0ox
DTALBgNVBAMTBFNKQ0EwHhcNMTYwOTI5MTQwOTQ4WhcNMTcwOTI5MTQwOTQ4WjBh
MQswCQYDVQQKDAJTSjEtMCsGA1UELhMkMTAyYmJjNGMtZTllMC00MTRhLTk3YzEt
YTc4YTcyMDNlMWE4MSMwIQYDVQQDDBpTSisrKytMdW5kX0NhbWVyYV9TZW5zZWhh
dDBZMBMGByqGSM49AgEGCCqGSM49AwEHA0IABKmaVnheHGPXtyzWSjflK3CVbVbS
T/AE4sAYEeeInFrCVyHOejzs3iO9p2KaIsYMaM9dr7U9v6eAMR1N2H3TG2GjZDBi
MB0GA1UdDgQWBBRVLXGYmFDOzsFth3EcvuSREhGiUzA2BgNVHSMELzAtoSCkHjAc
MQswCQYDVQQKEwJTSjENMAsGA1UEAxMEU0pDQYIJAJQHvob69momMAkGA1UdEwQC
MAAwDQYJKoZIhvcNAQELBQADggEBAFbvdjOXC4iNw08MiEuHnsemm1W9pdt+Ck/z
8hF0Y0xbqDepgQIhAFZb/R6TgzM1NACuNtmlnKd8Au10MHgLZlLBc7ucMm7c5jzG
Lk/yfJQPV4IL4bwTZWx3aPnRld2Qsq421flbrruJyb8jnPg9PN4o21dKeGbChP2v
JxZRPSbgAAoOcYnovTFP0dKtm6VnoGe/i6NEVAlvtRZ5ZkbfqhuOJxDT3w9AhtfT
uqWbeva6Ir00AwiRYgIjNfdZm6KScDkZTtpf9pz9O9aXQ9JRWfg0/bFyjay2Hzk2
6jyOC/jCrl7Fhbi9HAKB2z1z88RCqm1DXP/wFS1eWT1C2+VqWao=
-----END CERTIFICATE-----
