Certificate:
    Data:
        Version: 3 (0x2)
        Serial Number: 4099 (0x1003)
    Signature Algorithm: sha256WithRSAEncryption
        Issuer: O=testdomain, CN=testdomainCA
        Validity
            Not Before: Jun 10 10:22:00 2016 GMT
            Not After : Jun  9 10:22:00 2021 GMT
        Subject: O=testdomain/dnQualifier=1c17beb4-5f0b-4710-abb5-f8555736dc30, CN=com.ericsson++++secret_room
        Subject Public Key Info:
            Public Key Algorithm: id-ecPublicKey
                Public-Key: (256 bit)
                pub: 
                    04:85:1c:91:28:85:6d:1c:68:14:8d:fa:33:d8:01:
                    38:b6:db:85:3d:06:2b:dc:42:27:bb:fd:e0:1a:b7:
                    ec:93:3b:4b:ef:b6:da:f0:61:84:c7:f5:9b:30:d4:
                    01:88:90:3e:cd:24:48:53:63:09:28:38:3a:a5:ce:
                    35:64:ba:fd:5e
                ASN1 OID: prime256v1
        X509v3 extensions:
            X509v3 Subject Key Identifier: 
                D3:4D:8C:C7:BA:C6:4A:03:45:74:D9:2D:E6:29:D6:90:46:71:D3:15
            X509v3 Authority Key Identifier: 
                DirName:/O=testdomain/CN=testdomainCA
                serial:EE:79:A9:FE:1E:71:44:35

            X509v3 Basic Constraints: 
                CA:FALSE
    Signature Algorithm: sha256WithRSAEncryption
         31:96:03:40:a2:18:58:2b:b9:1a:26:9e:e3:96:e6:74:e1:0b:
         bb:26:a0:21:23:1c:78:fd:8b:74:49:f7:be:08:1a:d4:dd:cd:
         59:1f:90:ee:44:d2:ef:96:be:80:8d:5d:db:40:a9:ed:6d:66:
         1a:52:fe:8d:23:0c:3a:c0:4b:6d:48:c6:c5:8e:ba:e4:a1:13:
         44:b5:ae:b9:79:45:42:3e:79:59:88:bf:d5:7a:2c:52:e6:49:
         fb:7c:a4:a1:d6:b0:3c:f0:e4:73:14:ff:94:43:ea:94:b4:0e:
         7f:93:77:45:5a:23:f1:68:8c:17:2c:b0:17:85:60:af:aa:df:
         f5:04:66:eb:1c:a6:d8:2d:1b:63:3c:d2:15:47:d8:ac:5f:33:
         84:67:85:ce:35:fc:f8:cf:5d:ae:98:e9:29:83:bf:35:3a:7b:
         63:39:fa:cc:68:42:ea:a2:05:57:77:54:b7:9c:ab:13:7f:cf:
         0a:08:35:4f:88:4f:f9:55:e5:01:49:82:37:af:4b:73:88:8d:
         9a:14:d6:75:97:04:bf:62:38:64:92:96:e2:d5:e1:ab:94:d1:
         01:0b:f1:25:b9:71:0e:b7:ed:fc:9c:c6:2e:27:05:7c:36:4d:
         6e:0b:a5:81:dc:6c:08:95:83:f9:e0:f2:09:59:ee:ac:0a:34:
         84:8e:2c:0e
-----BEGIN CERTIFICATE-----
MIICuzCCAaOgAwIBAgICEAMwDQYJKoZIhvcNAQELBQAwLDETMBEGA1UEChMKdGVz
dGRvbWFpbjEVMBMGA1UEAxMMdGVzdGRvbWFpbkNBMB4XDTE2MDYxMDEwMjIwMFoX
DTIxMDYwOTEwMjIwMFowajETMBEGA1UECgwKdGVzdGRvbWFpbjEtMCsGA1UELhMk
MWMxN2JlYjQtNWYwYi00NzEwLWFiYjUtZjg1NTU3MzZkYzMwMSQwIgYDVQQDDBtj
b20uZXJpY3Nzb24rKysrc2VjcmV0X3Jvb20wWTATBgcqhkjOPQIBBggqhkjOPQMB
BwNCAASFHJEohW0caBSN+jPYATi224U9BivcQie7/eAat+yTO0vvttrwYYTH9Zsw
1AGIkD7NJEhTYwkoODqlzjVkuv1eo3QwcjAdBgNVHQ4EFgQU002Mx7rGSgNFdNkt
5inWkEZx0xUwRgYDVR0jBD8wPaEwpC4wLDETMBEGA1UEChMKdGVzdGRvbWFpbjEV
MBMGA1UEAxMMdGVzdGRvbWFpbkNBggkA7nmp/h5xRDUwCQYDVR0TBAIwADANBgkq
hkiG9w0BAQsFAAOCAQEAMZYDQKIYWCu5Giae45bmdOELuyagISMceP2LdEn3vgga
1N3NWR+Q7kTS75a+gI1d20Cp7W1mGlL+jSMMOsBLbUjGxY665KETRLWuuXlFQj55
WYi/1XosUuZJ+3ykodawPPDkcxT/lEPqlLQOf5N3RVoj8WiMFyywF4Vgr6rf9QRm
6xym2C0bYzzSFUfYrF8zhGeFzjX8+M9drpjpKYO/NTp7Yzn6zGhC6qIFV3dUt5yr
E3/PCgg1T4hP+VXlAUmCN69Lc4iNmhTWdZcEv2I4ZJKW4tXhq5TRAQvxJblxDrft
/JzGLicFfDZNbgulgdxsCJWD+eDyCVnurAo0hI4sDg==
-----END CERTIFICATE-----
