Certificate:
    Data:
        Version: 3 (0x2)
        Serial Number: 4097 (0x1001)
    Signature Algorithm: sha256WithRSAEncryption
        Issuer: O=testdomain, CN=testCA
        Validity
            Not Before: Mar 16 13:17:39 2016 GMT
            Not After : Mar 16 13:17:39 2017 GMT
        Subject: O=testdomain/dnQualifier=b228298c-f784-4e1f-8f02-1fa11f5cb4c3, CN=org.testexample++++testNode1
        Subject Public Key Info:
            Public Key Algorithm: id-ecPublicKey
                Public-Key: (256 bit)
                pub: 
                    04:c9:e5:19:0b:c5:b9:0f:45:d8:38:2e:5a:53:9c:
                    b8:0f:69:fc:08:5a:6e:81:e2:35:7e:4c:26:9e:c3:
                    5b:f5:c6:05:61:dd:93:15:3e:d1:62:f6:bf:f2:5f:
                    05:da:7a:26:b6:a0:b6:a0:08:b4:cb:d8:77:fc:9d:
                    f7:b0:d1:d8:20
                ASN1 OID: prime256v1
        X509v3 extensions:
            X509v3 Subject Key Identifier: 
                10:1F:F6:E1:05:AA:48:68:36:0C:C5:A6:B4:8F:56:6C:20:06:CF:9B
            X509v3 Authority Key Identifier: 
                DirName:/O=testdomain/CN=testCA
                serial:92:AC:B0:57:2D:08:61:1C

            X509v3 Basic Constraints: 
                CA:FALSE
    Signature Algorithm: sha256WithRSAEncryption
         79:8d:9f:63:a4:94:7a:ea:b7:bf:12:ca:44:21:10:6f:08:55:
         97:cc:e3:92:41:68:94:44:c4:19:1d:92:ed:4b:62:7e:e7:35:
         03:9a:a8:92:11:a3:e8:8c:52:32:0d:8b:0d:d5:a0:cb:37:57:
         f6:bd:6c:78:d9:3c:a5:cd:e3:ed:29:65:e7:d5:70:7c:c4:69:
         39:be:58:30:e9:49:eb:1e:32:1c:ac:45:ef:82:34:12:cd:f4:
         82:2e:20:67:08:6a:55:29:49:fd:07:28:69:05:9f:3c:d9:ca:
         fb:df:5e:b7:fb:5b:f0:bf:72:d5:b7:27:c7:ef:6f:f8:c0:b5:
         fa:30:83:72:43:f6:4e:07:f1:75:aa:64:35:41:54:8f:65:13:
         49:e7:ab:7b:74:e8:d2:59:b6:4a:3a:f4:97:fd:ef:42:82:ff:
         57:a9:f0:d9:2e:1b:a6:15:7b:cf:5a:8f:2b:77:26:cb:41:77:
         e3:e8:f5:27:5b:14:aa:21:2c:f4:f4:c8:a4:9c:4c:44:a4:d6:
         46:db:34:68:b0:af:45:b4:f1:d2:ab:97:ff:9e:d9:79:a2:ea:
         a8:c8:25:80:91:5c:17:69:3f:fd:b9:36:b8:6d:c0:9b:1c:22:
         77:84:1e:f4:bf:c9:d3:e3:f0:f3:55:2f:8e:78:6b:2c:4e:5a:
         07:97:2e:0f
-----BEGIN CERTIFICATE-----
MIICsDCCAZigAwIBAgICEAEwDQYJKoZIhvcNAQELBQAwJjETMBEGA1UEChMKdGVz
dGRvbWFpbjEPMA0GA1UEAxMGdGVzdENBMB4XDTE2MDMxNjEzMTczOVoXDTE3MDMx
NjEzMTczOVowazETMBEGA1UECgwKdGVzdGRvbWFpbjEtMCsGA1UELhMkYjIyODI5
OGMtZjc4NC00ZTFmLThmMDItMWZhMTFmNWNiNGMzMSUwIwYDVQQDDBxvcmcudGVz
dGV4YW1wbGUrKysrdGVzdE5vZGUxMFkwEwYHKoZIzj0CAQYIKoZIzj0DAQcDQgAE
yeUZC8W5D0XYOC5aU5y4D2n8CFpugeI1fkwmnsNb9cYFYd2TFT7RYva/8l8F2nom
tqC2oAi0y9h3/J33sNHYIKNuMGwwHQYDVR0OBBYEFBAf9uEFqkhoNgzFprSPVmwg
Bs+bMEAGA1UdIwQ5MDehKqQoMCYxEzARBgNVBAoTCnRlc3Rkb21haW4xDzANBgNV
BAMTBnRlc3RDQYIJAJKssFctCGEcMAkGA1UdEwQCMAAwDQYJKoZIhvcNAQELBQAD
ggEBAHmNn2OklHrqt78SykQhEG8IVZfM45JBaJRExBkdku1LYn7nNQOaqJIRo+iM
UjINiw3VoMs3V/a9bHjZPKXN4+0pZefVcHzEaTm+WDDpSeseMhysRe+CNBLN9IIu
IGcIalUpSf0HKGkFnzzZyvvfXrf7W/C/ctW3J8fvb/jAtfowg3JD9k4H8XWqZDVB
VI9lE0nnq3t06NJZtko69Jf970KC/1ep8NkuG6YVe89ajyt3JstBd+Po9SdbFKoh
LPT0yKScTESk1kbbNGiwr0W08dKrl/+e2Xmi6qjIJYCRXBdpP/25NrhtwJscIneE
HvS/ydPj8PNVL454ayxOWgeXLg8=
-----END CERTIFICATE-----
