Certificate:
    Data:
        Version: 3 (0x2)
        Serial Number: 4109 (0x100d)
    Signature Algorithm: sha256WithRSAEncryption
        Issuer: O=SJ, CN=SJCA
        Validity
            Not Before: Sep 29 14:09:49 2016 GMT
            Not After : Sep 29 14:09:49 2017 GMT
        Subject: O=SJ/dnQualifier=d0c59da3-aa9f-4f14-8bbd-0408dbc4c4b1, CN=SJ++++Sthlm_RFID
        Subject Public Key Info:
            Public Key Algorithm: id-ecPublicKey
                Public-Key: (256 bit)
                pub: 
                    04:9e:35:52:a2:02:69:be:cf:6e:e8:92:2c:df:be:
                    4a:20:3b:0e:ac:31:a7:d6:17:bc:e4:7d:70:00:ba:
                    6f:7d:cd:32:71:b7:0d:60:30:6c:9a:da:b2:54:ba:
                    7a:18:60:e2:5c:02:72:a5:20:a1:e4:99:8d:04:5e:
                    ac:bb:9d:9c:78
                ASN1 OID: prime256v1
        X509v3 extensions:
            X509v3 Subject Key Identifier: 
                5E:C8:EA:EC:8C:1B:33:34:76:F9:69:B7:98:1C:76:BF:93:C8:44:F0
            X509v3 Authority Key Identifier: 
                DirName:/O=SJ/CN=SJCA
                serial:94:07:BE:86:FA:F6:6A:26

            X509v3 Basic Constraints: 
                CA:FALSE
    Signature Algorithm: sha256WithRSAEncryption
         86:a8:aa:af:c7:e8:9f:5f:fc:3a:ed:7c:a0:34:17:a3:8f:5f:
         31:ff:11:f4:72:2c:cc:26:a0:40:e5:7b:5c:ce:96:a2:26:3b:
         4f:d7:e8:46:bd:25:ce:a6:9e:20:3b:df:0c:98:b4:17:08:11:
         48:5f:ab:4a:55:fe:21:9a:70:85:76:cd:c8:f9:2f:54:fd:26:
         4a:ec:a7:97:d1:19:17:be:33:cc:e9:ee:c3:34:62:de:49:e5:
         c6:9a:6b:de:14:2c:cd:82:88:88:6d:dd:dd:7e:92:53:81:87:
         bb:e4:31:59:85:a7:7b:d1:22:65:2c:77:3e:f8:3b:e1:4d:39:
         03:de:ab:51:0f:6d:b2:9d:ed:00:fa:58:af:a6:2a:81:97:9a:
         38:5b:0c:11:27:97:42:83:5e:a1:7c:07:97:65:44:c4:63:a9:
         b0:b2:02:5d:19:8d:74:02:2d:08:14:5c:c7:f7:d5:bd:b6:58:
         ec:6a:e5:23:fa:2f:5b:fd:50:31:c6:ce:47:59:6f:28:71:52:
         4a:1a:e8:8d:0d:0c:25:7c:e5:46:f3:7e:25:13:58:14:b4:88:
         04:b8:ff:da:82:ee:0f:b1:c2:82:64:fc:72:14:d1:d9:e4:14:
         90:16:54:ca:0f:35:c2:df:16:2d:5b:2b:1e:67:6c:5c:ad:a7:
         5a:44:f1:3b
-----BEGIN CERTIFICATE-----
MIICiDCCAXCgAwIBAgICEA0wDQYJKoZIhvcNAQELBQAwHDELMAkGA1UEChMCU0ox
DTALBgNVBAMTBFNKQ0EwHhcNMTYwOTI5MTQwOTQ5WhcNMTcwOTI5MTQwOTQ5WjBX
MQswCQYDVQQKDAJTSjEtMCsGA1UELhMkZDBjNTlkYTMtYWE5Zi00ZjE0LThiYmQt
MDQwOGRiYzRjNGIxMRkwFwYDVQQDDBBTSisrKytTdGhsbV9SRklEMFkwEwYHKoZI
zj0CAQYIKoZIzj0DAQcDQgAEnjVSogJpvs9u6JIs375KIDsOrDGn1he85H1wALpv
fc0ycbcNYDBsmtqyVLp6GGDiXAJypSCh5JmNBF6su52ceKNkMGIwHQYDVR0OBBYE
FF7I6uyMGzM0dvlpt5gcdr+TyETwMDYGA1UdIwQvMC2hIKQeMBwxCzAJBgNVBAoT
AlNKMQ0wCwYDVQQDEwRTSkNBggkAlAe+hvr2aiYwCQYDVR0TBAIwADANBgkqhkiG
9w0BAQsFAAOCAQEAhqiqr8fon1/8Ou18oDQXo49fMf8R9HIszCagQOV7XM6WoiY7
T9foRr0lzqaeIDvfDJi0FwgRSF+rSlX+IZpwhXbNyPkvVP0mSuynl9EZF74zzOnu
wzRi3knlxppr3hQszYKIiG3d3X6SU4GHu+QxWYWne9EiZSx3Pvg74U05A96rUQ9t
sp3tAPpYr6YqgZeaOFsMESeXQoNeoXwHl2VExGOpsLICXRmNdAItCBRcx/fVvbZY
7GrlI/ovW/1QMcbOR1lvKHFSShrojQ0MJXzlRvN+JRNYFLSIBLj/2oLuD7HCgmT8
chTR2eQUkBZUyg81wt8WLVsrHmdsXK2nWkTxOw==
-----END CERTIFICATE-----
