Certificate:
    Data:
        Version: 3 (0x2)
        Serial Number: 4101 (0x1005)
    Signature Algorithm: sha256WithRSAEncryption
        Issuer: O=testdomain, CN=testdomainCA
        Validity
            Not Before: Jun 10 10:23:42 2016 GMT
            Not After : Jun  9 10:23:42 2021 GMT
        Subject: O=testdomain/dnQualifier=8a557646-3349-4939-bb85-e848c0e67a61, CN=com.ericsson++++entrance
        Subject Public Key Info:
            Public Key Algorithm: id-ecPublicKey
                Public-Key: (256 bit)
                pub: 
                    04:b8:bf:a1:36:1e:d5:aa:4c:19:cb:b4:e2:2b:6d:
                    5a:0f:34:c9:3f:ff:de:ce:98:85:0c:59:02:3c:8c:
                    d2:25:63:8c:70:2d:09:0c:3e:4c:97:9f:fa:f5:57:
                    a6:61:5e:76:a5:2e:a3:34:a1:95:61:d2:82:54:6d:
                    84:b4:f4:19:51
                ASN1 OID: prime256v1
        X509v3 extensions:
            X509v3 Subject Key Identifier: 
                BB:19:05:41:6E:FE:40:65:29:F3:FE:88:55:A5:D8:FB:A3:BC:A2:EF
            X509v3 Authority Key Identifier: 
                DirName:/O=testdomain/CN=testdomainCA
                serial:EE:79:A9:FE:1E:71:44:35

            X509v3 Basic Constraints: 
                CA:FALSE
    Signature Algorithm: sha256WithRSAEncryption
         69:58:2a:56:68:eb:bb:6a:1d:2d:7e:d1:54:8b:ce:45:de:21:
         53:dc:b0:ae:d4:54:81:a9:b1:83:1a:95:87:a4:1a:f2:79:d0:
         ec:7b:d1:b9:31:0f:5e:ae:99:8e:4a:1f:5d:e8:64:71:45:7f:
         47:9c:c9:7d:02:6a:c8:a3:40:9b:b9:ae:c2:93:cc:c7:ba:15:
         43:52:aa:b0:82:9c:e3:ca:4d:fa:b6:08:fb:a1:cb:b8:3f:a0:
         bb:c1:f0:ac:d6:d8:e0:a2:42:f4:da:86:19:4e:3b:bf:ff:7c:
         0b:6c:7e:ec:a2:d5:8f:2c:18:e7:9d:ed:8a:c4:0a:67:4c:8d:
         cc:bb:7b:79:b1:c4:c8:10:25:57:9a:68:44:91:d8:d0:72:ad:
         00:34:9e:ca:56:f3:8c:94:75:83:36:ed:2d:8d:3e:bf:eb:38:
         f1:90:d3:e6:a8:5f:35:ee:df:07:d4:6f:5a:fd:c8:4d:f9:84:
         8e:46:17:d2:5d:da:4b:fa:7d:7a:18:07:38:4e:e7:aa:94:f5:
         b4:33:b0:17:24:ff:e0:07:53:8b:a1:ee:7e:59:ad:f2:b4:70:
         5f:22:8b:f9:43:64:92:2e:82:e9:6f:aa:ca:ae:b6:9a:28:64:
         fa:4d:bc:ba:8b:1f:6c:a7:35:02:98:24:48:d0:5a:dc:61:0f:
         d4:d6:ed:1d
-----BEGIN CERTIFICATE-----
MIICuDCCAaCgAwIBAgICEAUwDQYJKoZIhvcNAQELBQAwLDETMBEGA1UEChMKdGVz
dGRvbWFpbjEVMBMGA1UEAxMMdGVzdGRvbWFpbkNBMB4XDTE2MDYxMDEwMjM0MloX
DTIxMDYwOTEwMjM0MlowZzETMBEGA1UECgwKdGVzdGRvbWFpbjEtMCsGA1UELhMk
OGE1NTc2NDYtMzM0OS00OTM5LWJiODUtZTg0OGMwZTY3YTYxMSEwHwYDVQQDDBhj
b20uZXJpY3Nzb24rKysrZW50cmFuY2UwWTATBgcqhkjOPQIBBggqhkjOPQMBBwNC
AAS4v6E2HtWqTBnLtOIrbVoPNMk//97OmIUMWQI8jNIlY4xwLQkMPkyXn/r1V6Zh
XnalLqM0oZVh0oJUbYS09BlRo3QwcjAdBgNVHQ4EFgQUuxkFQW7+QGUp8/6IVaXY
+6O8ou8wRgYDVR0jBD8wPaEwpC4wLDETMBEGA1UEChMKdGVzdGRvbWFpbjEVMBMG
A1UEAxMMdGVzdGRvbWFpbkNBggkA7nmp/h5xRDUwCQYDVR0TBAIwADANBgkqhkiG
9w0BAQsFAAOCAQEAaVgqVmjru2odLX7RVIvORd4hU9ywrtRUgamxgxqVh6Qa8nnQ
7HvRuTEPXq6ZjkofXehkcUV/R5zJfQJqyKNAm7muwpPMx7oVQ1KqsIKc48pN+rYI
+6HLuD+gu8HwrNbY4KJC9NqGGU47v/98C2x+7KLVjywY553tisQKZ0yNzLt7ebHE
yBAlV5poRJHY0HKtADSeylbzjJR1gzbtLY0+v+s48ZDT5qhfNe7fB9RvWv3ITfmE
jkYX0l3aS/p9ehgHOE7nqpT1tDOwFyT/4AdTi6Huflmt8rRwXyKL+UNkki6C6W+q
yq62mihk+k28uosfbKc1ApgkSNBa3GEP1NbtHQ==
-----END CERTIFICATE-----
