Certificate:
    Data:
        Version: 3 (0x2)
        Serial Number: 4115 (0x1013)
    Signature Algorithm: sha256WithRSAEncryption
        Issuer: O=testdomain, CN=testCA
        Validity
            Not Before: Apr 22 11:06:14 2016 GMT
            Not After : Apr 21 11:06:14 2021 GMT
        Subject: O=testdomain/dnQualifier=17e9ad66-bcba-4068-bc17-7fcc86aa870e, CN=org.testexample++++testNode2
        Subject Public Key Info:
            Public Key Algorithm: id-ecPublicKey
                Public-Key: (256 bit)
                pub: 
                    04:b1:05:5b:31:ee:da:9d:f8:cb:64:be:7c:00:65:
                    63:36:57:49:26:7d:80:b5:4f:41:3a:6b:17:4c:53:
                    0c:f5:16:0c:db:1c:d2:5f:2f:7b:f3:83:78:d3:46:
                    22:c7:f5:01:24:f9:be:72:6e:31:c7:91:f8:51:c4:
                    f6:d8:75:df:21
                ASN1 OID: prime256v1
        X509v3 extensions:
            X509v3 Subject Key Identifier: 
                EB:1D:86:60:64:52:A1:D7:0A:9E:B1:B2:AD:CA:D3:81:DE:AA:2A:5C
            X509v3 Authority Key Identifier: 
                DirName:/O=testdomain/CN=testCA
                serial:EE:0B:D2:ED:31:CF:74:30

            X509v3 Basic Constraints: 
                CA:FALSE
    Signature Algorithm: sha256WithRSAEncryption
         6d:e3:a7:85:18:47:df:96:e4:6d:71:94:a4:92:0c:10:a4:a7:
         3c:d9:60:8f:c9:eb:3e:c3:f9:e8:68:28:e3:55:93:a9:23:22:
         c3:48:8f:27:44:d0:11:c1:3e:e2:b8:3d:5f:24:4a:57:cc:6d:
         7f:a8:e0:9e:06:53:83:62:b4:80:7e:bb:17:ef:fb:ee:41:ed:
         f2:b6:3d:e2:96:6d:c3:35:b4:0e:cd:5a:76:ab:d0:4d:75:a8:
         12:31:b6:be:58:bb:9f:fe:9b:03:d3:9e:a6:ef:dc:d2:17:81:
         33:14:19:3b:34:43:93:a3:b4:df:7e:f3:00:14:5b:17:53:ae:
         f5:13:39:6f:14:a2:3f:cb:78:ad:d2:d7:a2:4e:32:0b:4c:03:
         e3:0d:e3:6f:ff:cb:04:0b:00:b3:b8:5c:e1:31:73:55:0d:ec:
         9f:cb:68:09:b4:c2:f0:85:b4:dd:da:ee:99:ac:e8:ba:4c:80:
         19:51:bb:98:88:01:de:f7:82:3d:72:3b:36:ac:f9:7f:93:dd:
         80:79:16:03:c3:e5:1c:3c:fc:09:7c:d8:3b:71:a6:be:68:a2:
         f7:b7:77:ba:b1:fe:89:3e:8b:63:48:b2:be:ba:ed:56:3d:1f:
         bf:4e:21:0a:25:5f:32:67:5d:b0:17:4f:c2:8d:9f:fc:f3:b1:
         4f:55:3e:12
-----BEGIN CERTIFICATE-----
MIICsDCCAZigAwIBAgICEBMwDQYJKoZIhvcNAQELBQAwJjETMBEGA1UEChMKdGVz
dGRvbWFpbjEPMA0GA1UEAxMGdGVzdENBMB4XDTE2MDQyMjExMDYxNFoXDTIxMDQy
MTExMDYxNFowazETMBEGA1UECgwKdGVzdGRvbWFpbjEtMCsGA1UELhMkMTdlOWFk
NjYtYmNiYS00MDY4LWJjMTctN2ZjYzg2YWE4NzBlMSUwIwYDVQQDDBxvcmcudGVz
dGV4YW1wbGUrKysrdGVzdE5vZGUyMFkwEwYHKoZIzj0CAQYIKoZIzj0DAQcDQgAE
sQVbMe7anfjLZL58AGVjNldJJn2AtU9BOmsXTFMM9RYM2xzSXy9784N400Yix/UB
JPm+cm4xx5H4UcT22HXfIaNuMGwwHQYDVR0OBBYEFOsdhmBkUqHXCp6xsq3K04He
qipcMEAGA1UdIwQ5MDehKqQoMCYxEzARBgNVBAoTCnRlc3Rkb21haW4xDzANBgNV
BAMTBnRlc3RDQYIJAO4L0u0xz3QwMAkGA1UdEwQCMAAwDQYJKoZIhvcNAQELBQAD
ggEBAG3jp4UYR9+W5G1xlKSSDBCkpzzZYI/J6z7D+ehoKONVk6kjIsNIjydE0BHB
PuK4PV8kSlfMbX+o4J4GU4NitIB+uxfv++5B7fK2PeKWbcM1tA7NWnar0E11qBIx
tr5Yu5/+mwPTnqbv3NIXgTMUGTs0Q5OjtN9+8wAUWxdTrvUTOW8Uoj/LeK3S16JO
MgtMA+MN42//ywQLALO4XOExc1UN7J/LaAm0wvCFtN3a7pms6LpMgBlRu5iIAd73
gj1yOzas+X+T3YB5FgPD5Rw8/Al82Dtxpr5oove3d7qx/ok+i2NIsr667VY9H79O
IQolXzJnXbAXT8KNn/zzsU9VPhI=
-----END CERTIFICATE-----
