Certificate:
    Data:
        Version: 3 (0x2)
        Serial Number: 1 (0x1)
    Signature Algorithm: sha256WithRSAEncryption
        Issuer: C=SE, ST=Skane, L=Lund, O=Calvin CA, OU=CA department, CN=Calvin CA/emailAddress=ca@calvin.com
        Validity
            Not Before: Oct  9 09:28:41 2015 GMT
            Not After : Jul  5 09:28:41 2018 GMT
        Subject: C=SE, ST=Skane, L=Lund, O=Calvin, OU=Calvin Identity Provider, CN=ID provider
        Subject Public Key Info:
            Public Key Algorithm: rsaEncryption
                Public-Key: (2048 bit)
                Modulus:
                    00:b4:16:be:ad:be:5c:0c:bd:67:fb:1c:db:7a:d1:
                    09:56:a9:35:e5:59:ae:bc:ad:f9:05:fb:8b:09:4a:
                    61:43:0f:93:ed:e9:81:82:8f:f8:08:3b:8a:42:1a:
                    e8:3c:73:ed:79:ee:cd:fc:c3:7f:ad:22:c8:23:fd:
                    d4:43:e0:3d:d4:90:88:b0:c3:5f:d4:54:ab:7d:ed:
                    3a:c1:70:f8:3c:c4:08:ff:55:5b:52:8a:1e:d4:8c:
                    44:aa:53:cf:9d:a6:86:e1:89:af:1b:e5:f1:8f:9d:
                    98:3d:93:ec:22:24:5f:38:c9:5a:54:c4:e4:fa:87:
                    64:d4:46:42:2b:82:be:c0:0a:98:96:c6:1b:ab:2d:
                    6b:e1:8b:08:4d:99:ef:14:02:75:98:ee:8d:b8:e8:
                    cc:e4:2f:05:4e:ab:7b:f6:77:e7:6d:cf:cb:15:62:
                    90:35:fb:53:1a:fc:a1:9d:95:94:b1:2f:4d:a0:86:
                    69:d8:b0:b2:7f:bc:f1:b1:6f:44:3f:bc:e3:2b:3e:
                    e7:fd:41:9e:5d:4b:5e:cf:63:d0:56:9e:bd:f2:28:
                    2a:2b:ec:8c:50:24:bc:fc:e7:4a:5f:b8:dd:ba:14:
                    25:53:9a:59:7b:0d:ba:a6:a4:89:53:83:31:7f:f3:
                    0f:01:d9:73:88:6e:c1:a4:6a:69:16:b4:fb:87:fb:
                    8e:af
                Exponent: 65537 (0x10001)
        X509v3 extensions:
            X509v3 Subject Key Identifier: 
                CA:76:3A:F5:6E:CB:B5:96:9D:66:6D:EB:4E:13:2A:FA:FA:51:AD:F4
            X509v3 Authority Key Identifier: 
                keyid:97:24:D2:C8:96:CD:B4:9C:71:E9:A9:C4:1C:22:85:9C:F4:0B:39:7A

            X509v3 Basic Constraints: 
                CA:FALSE
            X509v3 Key Usage: 
                Digital Signature, Key Encipherment
    Signature Algorithm: sha256WithRSAEncryption
         95:15:56:b4:ff:12:d7:72:09:c7:75:45:73:cc:33:86:6d:93:
         e5:ec:56:32:f2:d1:67:e7:b5:ae:8f:4f:73:58:e1:a5:f0:1e:
         0c:cb:ef:f7:e8:d3:2f:30:1e:cb:fd:ca:33:6b:d0:26:13:dc:
         c9:2b:3c:7b:df:e9:fd:5a:bb:91:ce:7b:46:4f:e7:30:1d:12:
         40:b6:27:91:af:81:0f:92:d2:ae:bf:91:48:f2:14:e0:a1:e3:
         47:36:86:fe:38:e5:e7:27:71:4f:77:d5:c6:be:02:bf:59:9e:
         a4:12:a6:51:0b:c0:d1:52:4a:2d:91:5a:4b:2d:30:f0:1f:51:
         a9:39:5f:97:dd:b2:ba:25:55:bc:3e:de:3c:37:43:5c:e9:14:
         4a:32:d8:e7:7e:1a:2d:ac:ac:cf:64:b3:3a:41:c6:8d:c0:78:
         e6:8f:44:5c:f2:2a:99:15:28:c0:c6:5c:db:71:79:bd:0b:67:
         5c:22:25:1e:9d:e2:0c:d0:62:01:0e:77:71:25:85:d4:e5:fa:
         04:4b:01:b2:ad:ee:97:3a:80:44:86:a1:9d:50:c9:ad:a5:5a:
         bd:69:fc:fe:e9:aa:65:67:d6:6f:08:9c:ef:89:bf:9d:c7:5a:
         57:b4:fe:0f:1a:9c:af:55:a1:0c:cf:7d:98:07:89:65:fd:28:
         c1:86:1d:9f:0a:db:d7:7d:bf:ba:b6:d8:c8:8e:1b:16:2b:dd:
         4f:fa:08:e7:f4:1e:b6:ce:33:b7:3f:d0:07:32:0c:d5:be:80:
         84:d7:6c:49:b4:4a:d6:af:b6:c2:18:3c:30:ac:42:33:92:0f:
         22:ee:25:e7:d9:10:be:c6:82:4c:aa:0e:3c:c2:a9:af:f2:c7:
         a6:9b:4e:ae:45:85:a5:62:cd:b9:04:89:d8:90:b2:90:06:bd:
         33:2d:7d:24:25:e1:36:f8:55:a8:cb:d6:64:14:ee:b9:c5:17:
         a9:00:15:91:9b:73:6f:db:5c:0b:02:fa:e1:08:7e:5f:74:b2:
         95:b5:f4:be:02:08:cb:57:a5:de:0d:b7:cc:81:42:f0:68:e8:
         86:dc:8b:db:c4:50:bf:72:20:07:1c:04:06:94:57:a9:a8:f8:
         ab:c5:86:a5:fa:3e:2f:19:e0:20:1e:3d:45:61:a9:c8:57:09:
         1b:a4:d9:83:55:9a:40:bb:17:ee:19:0a:1c:78:5a:ef:89:f1:
         2f:d7:c8:d1:78:d3:fc:d2:0e:41:73:e8:7d:16:c3:7c:2f:61:
         3d:46:c9:0c:51:3b:50:66:b4:2a:48:99:a2:23:13:10:77:c7:
         1f:eb:68:39:48:15:08:cb:1f:86:1f:fc:e3:58:de:13:36:f0:
         22:35:e7:b1:be:9e:b7:f4
-----BEGIN CERTIFICATE-----
MIIE1jCCAr6gAwIBAgIBATANBgkqhkiG9w0BAQsFADCBijELMAkGA1UEBhMCU0Ux
DjAMBgNVBAgMBVNrYW5lMQ0wCwYDVQQHDARMdW5kMRIwEAYDVQQKDAlDYWx2aW4g
Q0ExFjAUBgNVBAsMDUNBIGRlcGFydG1lbnQxEjAQBgNVBAMMCUNhbHZpbiBDQTEc
MBoGCSqGSIb3DQEJARYNY2FAY2FsdmluLmNvbTAeFw0xNTEwMDkwOTI4NDFaFw0x
ODA3MDUwOTI4NDFaMHYxCzAJBgNVBAYTAlNFMQ4wDAYDVQQIDAVTa2FuZTENMAsG
A1UEBwwETHVuZDEPMA0GA1UECgwGQ2FsdmluMSEwHwYDVQQLDBhDYWx2aW4gSWRl
bnRpdHkgUHJvdmlkZXIxFDASBgNVBAMMC0lEIHByb3ZpZGVyMIIBIjANBgkqhkiG
9w0BAQEFAAOCAQ8AMIIBCgKCAQEAtBa+rb5cDL1n+xzbetEJVqk15VmuvK35BfuL
CUphQw+T7emBgo/4CDuKQhroPHPtee7N/MN/rSLII/3UQ+A91JCIsMNf1FSrfe06
wXD4PMQI/1VbUooe1IxEqlPPnaaG4YmvG+Xxj52YPZPsIiRfOMlaVMTk+odk1EZC
K4K+wAqYlsYbqy1r4YsITZnvFAJ1mO6NuOjM5C8FTqt79nfnbc/LFWKQNftTGvyh
nZWUsS9NoIZp2LCyf7zxsW9EP7zjKz7n/UGeXUtez2PQVp698igqK+yMUCS8/OdK
X7jduhQlU5pZew26pqSJU4Mxf/MPAdlziG7BpGppFrT7h/uOrwIDAQABo1owWDAd
BgNVHQ4EFgQUynY69W7LtZadZm3rThMq+vpRrfQwHwYDVR0jBBgwFoAUlyTSyJbN
tJxx6anEHCKFnPQLOXowCQYDVR0TBAIwADALBgNVHQ8EBAMCBaAwDQYJKoZIhvcN
AQELBQADggIBAJUVVrT/EtdyCcd1RXPMM4Ztk+XsVjLy0Wfnta6PT3NY4aXwHgzL
7/fo0y8wHsv9yjNr0CYT3MkrPHvf6f1au5HOe0ZP5zAdEkC2J5GvgQ+S0q6/kUjy
FOCh40c2hv445ecncU931ca+Ar9ZnqQSplELwNFSSi2RWkstMPAfUak5X5fdsrol
Vbw+3jw3Q1zpFEoy2Od+Gi2srM9kszpBxo3AeOaPRFzyKpkVKMDGXNtxeb0LZ1wi
JR6d4gzQYgEOd3ElhdTl+gRLAbKt7pc6gESGoZ1Qya2lWr1p/P7pqmVn1m8InO+J
v53HWle0/g8anK9VoQzPfZgHiWX9KMGGHZ8K29d9v7q22MiOGxYr3U/6COf0HrbO
M7c/0AcyDNW+gITXbEm0StavtsIYPDCsQjOSDyLuJefZEL7GgkyqDjzCqa/yx6ab
Tq5FhaVizbkEidiQspAGvTMtfSQl4Tb4VajL1mQU7rnFF6kAFZGbc2/bXAsC+uEI
fl90spW19L4CCMtXpd4Nt8yBQvBo6Ibci9vEUL9yIAccBAaUV6mo+KvFhqX6Pi8Z
4CAePUVhqchXCRuk2YNVmkC7F+4ZChx4Wu+J8S/XyNF40/zSDkFz6H0Ww3wvYT1G
yQxRO1BmtCpImaIjExB3xx/raDlIFQjLH4Yf/ONY3hM28CI157G+nrf0
-----END CERTIFICATE-----
