Certificate:
    Data:
        Version: 3 (0x2)
        Serial Number: 4105 (0x1009)
    Signature Algorithm: sha256WithRSAEncryption
        Issuer: O=SJ, CN=SJCA
        Validity
            Not Before: Sep 29 14:09:48 2016 GMT
            Not After : Sep 29 14:09:48 2017 GMT
        Subject: O=SJ/dnQualifier=df9db341-d487-4a30-ac7a-97d91dd34f82, CN=SJ++++Lund_InfoBoard
        Subject Public Key Info:
            Public Key Algorithm: id-ecPublicKey
                Public-Key: (256 bit)
                pub: 
                    04:f2:08:f9:83:6b:c5:d7:7c:67:bb:19:ab:d6:38:
                    6f:30:6f:ef:14:87:af:3c:e4:70:fb:d8:3d:9c:d2:
                    65:81:33:d3:e6:4e:b6:b7:6c:38:5b:d7:46:14:0e:
                    5d:4f:ae:be:df:c4:8e:a6:51:9f:ad:13:14:07:4f:
                    83:0b:a0:da:3a
                ASN1 OID: prime256v1
        X509v3 extensions:
            X509v3 Subject Key Identifier: 
                37:72:9E:3C:00:3B:CC:E4:61:C6:F6:EF:F2:B8:9E:59:D3:21:9E:DA
            X509v3 Authority Key Identifier: 
                DirName:/O=SJ/CN=SJCA
                serial:94:07:BE:86:FA:F6:6A:26

            X509v3 Basic Constraints: 
                CA:FALSE
    Signature Algorithm: sha256WithRSAEncryption
         35:3c:2a:0a:3d:2e:d5:1d:96:b8:92:4c:c5:de:b1:4b:f6:d1:
         dc:b8:c4:2a:25:a2:2c:db:2c:32:57:15:76:7d:b1:49:ad:4c:
         02:1f:9b:3a:a1:a7:fb:4b:be:51:e9:e4:00:55:f0:ff:5b:a2:
         39:4d:e8:55:55:0c:63:e1:27:94:a5:61:5e:4f:cb:75:e6:8c:
         5c:63:4f:4b:e3:e5:a0:e4:2b:81:83:46:7d:72:7a:b8:f8:a3:
         f5:fd:c5:ac:62:4d:1e:ff:3c:18:34:fc:ed:31:9f:5b:2e:77:
         d3:fe:6c:d4:c7:92:99:b1:a1:15:3f:93:2c:d5:92:f5:de:8a:
         33:05:c2:08:95:1d:64:43:24:9b:e3:d2:16:de:13:46:b8:95:
         b1:86:5b:74:f4:2d:e1:ba:b3:0b:45:dc:7b:41:43:ec:7a:83:
         54:45:9c:01:cf:0f:bf:e0:67:b3:73:57:19:bd:cd:19:d6:e5:
         7f:14:64:22:bb:86:2a:b4:22:ca:1a:53:77:94:48:78:c7:c7:
         de:a4:44:7d:cf:ac:f8:32:7c:62:eb:69:e5:7a:34:70:f4:8a:
         95:76:7c:a0:81:fb:0a:69:1b:8a:c2:67:8c:36:72:d2:eb:2c:
         ea:49:70:45:82:53:da:8f:49:3a:40:bf:c0:ce:12:39:97:40:
         3f:6b:8d:85
-----BEGIN CERTIFICATE-----
MIICjDCCAXSgAwIBAgICEAkwDQYJKoZIhvcNAQELBQAwHDELMAkGA1UEChMCU0ox
DTALBgNVBAMTBFNKQ0EwHhcNMTYwOTI5MTQwOTQ4WhcNMTcwOTI5MTQwOTQ4WjBb
MQswCQYDVQQKDAJTSjEtMCsGA1UELhMkZGY5ZGIzNDEtZDQ4Ny00YTMwLWFjN2Et
OTdkOTFkZDM0ZjgyMR0wGwYDVQQDDBRTSisrKytMdW5kX0luZm9Cb2FyZDBZMBMG
ByqGSM49AgEGCCqGSM49AwEHA0IABPII+YNrxdd8Z7sZq9Y4bzBv7xSHrzzkcPvY
PZzSZYEz0+ZOtrdsOFvXRhQOXU+uvt/EjqZRn60TFAdPgwug2jqjZDBiMB0GA1Ud
DgQWBBQ3cp48ADvM5GHG9u/yuJ5Z0yGe2jA2BgNVHSMELzAtoSCkHjAcMQswCQYD
VQQKEwJTSjENMAsGA1UEAxMEU0pDQYIJAJQHvob69momMAkGA1UdEwQCMAAwDQYJ
KoZIhvcNAQELBQADggEBADU8Kgo9LtUdlriSTMXesUv20dy4xColoizbLDJXFXZ9
sUmtTAIfmzqhp/tLvlHp5ABV8P9bojlN6FVVDGPhJ5SlYV5Py3XmjFxjT0vj5aDk
K4GDRn1yerj4o/X9xaxiTR7/PBg0/O0xn1sud9P+bNTHkpmxoRU/kyzVkvXeijMF
wgiVHWRDJJvj0hbeE0a4lbGGW3T0LeG6swtF3HtBQ+x6g1RFnAHPD7/gZ7NzVxm9
zRnW5X8UZCK7hiq0IsoaU3eUSHjHx96kRH3PrPgyfGLraeV6NHD0ipV2fKCB+wpp
G4rCZ4w2ctLrLOpJcEWCU9qPSTpAv8DOEjmXQD9rjYU=
-----END CERTIFICATE-----
