Certificate:
    Data:
        Version: 3 (0x2)
        Serial Number: 4113 (0x1011)
    Signature Algorithm: sha256WithRSAEncryption
        Issuer: O=testdomain, CN=testCA
        Validity
            Not Before: Apr 22 11:06:14 2016 GMT
            Not After : Apr 21 11:06:14 2021 GMT
        Subject: O=testdomain/dnQualifier=b02d938f-3d9a-4be4-9193-e1f6cec92485, CN=org.testexample++++testNode4
        Subject Public Key Info:
            Public Key Algorithm: id-ecPublicKey
                Public-Key: (256 bit)
                pub: 
                    04:47:f5:03:f2:67:76:e0:18:ff:68:e3:f1:de:3a:
                    5f:1a:6a:85:fd:a2:65:c1:54:ea:84:b7:1c:0c:a1:
                    18:31:59:79:8f:71:e0:54:1a:67:c2:51:ee:a9:8d:
                    e6:8c:6e:64:fa:21:96:74:f3:55:df:2e:b6:12:fe:
                    35:fe:33:44:ff
                ASN1 OID: prime256v1
        X509v3 extensions:
            X509v3 Subject Key Identifier: 
                AF:4E:24:35:10:05:0D:B9:DA:12:77:37:37:3B:99:1A:91:11:FF:C9
            X509v3 Authority Key Identifier: 
                DirName:/O=testdomain/CN=testCA
                serial:EE:0B:D2:ED:31:CF:74:30

            X509v3 Basic Constraints: 
                CA:FALSE
    Signature Algorithm: sha256WithRSAEncryption
         7a:d3:17:a5:dc:6d:84:fb:f9:74:ad:24:1b:4f:d2:a0:82:74:
         cf:3a:82:df:55:1c:c4:d3:c1:3a:67:72:df:f1:61:f7:1a:fc:
         c2:8f:86:5a:72:c2:29:35:39:e3:b0:08:31:3e:21:13:9c:77:
         13:d0:6f:2d:35:6a:69:e4:a8:7e:f5:b6:b9:0c:a8:89:b2:4f:
         b0:cb:9c:58:62:06:2d:ba:c7:0c:79:3e:b4:08:94:cf:b1:2e:
         d6:84:80:27:40:38:15:9b:e8:3d:40:1c:d5:4e:84:7f:c5:63:
         87:f5:58:07:eb:b8:ee:52:01:ff:af:91:b7:75:35:ea:f3:7a:
         12:fc:ee:17:92:83:bf:46:0a:92:38:c1:ed:e0:53:63:39:69:
         ce:80:db:78:ec:54:20:14:ff:bf:6c:89:a9:3a:a1:5e:56:bd:
         cc:96:df:ec:7e:a8:33:9b:08:b7:22:02:4b:d5:7f:5b:ee:96:
         3d:66:ab:f9:f3:4e:cb:61:29:22:a6:5b:43:96:c5:2b:e3:86:
         65:d1:31:0f:3d:93:a6:5e:8c:f2:1e:2c:b9:2a:2b:5a:43:74:
         f5:c1:22:a7:c3:da:24:80:53:dc:48:7b:32:c7:0e:f2:2a:0d:
         85:7d:fa:6f:68:60:0f:89:3b:ce:7b:fc:b2:2a:50:11:92:20:
         48:9b:79:94
-----BEGIN CERTIFICATE-----
MIICsDCCAZigAwIBAgICEBEwDQYJKoZIhvcNAQELBQAwJjETMBEGA1UEChMKdGVz
dGRvbWFpbjEPMA0GA1UEAxMGdGVzdENBMB4XDTE2MDQyMjExMDYxNFoXDTIxMDQy
MTExMDYxNFowazETMBEGA1UECgwKdGVzdGRvbWFpbjEtMCsGA1UELhMkYjAyZDkz
OGYtM2Q5YS00YmU0LTkxOTMtZTFmNmNlYzkyNDg1MSUwIwYDVQQDDBxvcmcudGVz
dGV4YW1wbGUrKysrdGVzdE5vZGU0MFkwEwYHKoZIzj0CAQYIKoZIzj0DAQcDQgAE
R/UD8md24Bj/aOPx3jpfGmqF/aJlwVTqhLccDKEYMVl5j3HgVBpnwlHuqY3mjG5k
+iGWdPNV3y62Ev41/jNE/6NuMGwwHQYDVR0OBBYEFK9OJDUQBQ252hJ3Nzc7mRqR
Ef/JMEAGA1UdIwQ5MDehKqQoMCYxEzARBgNVBAoTCnRlc3Rkb21haW4xDzANBgNV
BAMTBnRlc3RDQYIJAO4L0u0xz3QwMAkGA1UdEwQCMAAwDQYJKoZIhvcNAQELBQAD
ggEBAHrTF6XcbYT7+XStJBtP0qCCdM86gt9VHMTTwTpnct/xYfca/MKPhlpywik1
OeOwCDE+IROcdxPQby01amnkqH71trkMqImyT7DLnFhiBi26xwx5PrQIlM+xLtaE
gCdAOBWb6D1AHNVOhH/FY4f1WAfruO5SAf+vkbd1NerzehL87heSg79GCpI4we3g
U2M5ac6A23jsVCAU/79siak6oV5WvcyW3+x+qDObCLciAkvVf1vulj1mq/nzTsth
KSKmW0OWxSvjhmXRMQ89k6ZejPIeLLkqK1pDdPXBIqfD2iSAU9xIezLHDvIqDYV9
+m9oYA+JO857/LIqUBGSIEibeZQ=
-----END CERTIFICATE-----
