Certificate:
    Data:
        Version: 3 (0x2)
        Serial Number: 2 (0x2)
    Signature Algorithm: sha256WithRSAEncryption
        Issuer: C=SE, ST=Skane, L=Lund, O=Calvin CA, OU=CA department, CN=Calvin CA/emailAddress=ca@calvin.com
        Validity
            Not Before: Oct  9 09:31:44 2015 GMT
            Not After : Jul  5 09:31:44 2018 GMT
        Subject: C=SE, ST=Skane, L=Lund, O=Calvin, OU=Calvin client, CN=client
        Subject Public Key Info:
            Public Key Algorithm: rsaEncryption
                Public-Key: (2048 bit)
                Modulus:
                    00:d5:c8:25:ea:e0:9e:1f:4f:71:ab:c7:eb:47:92:
                    33:9a:e7:80:61:85:ab:13:ae:2a:96:3e:17:06:aa:
                    50:73:d5:3e:0f:14:96:41:cd:03:8c:1b:2f:61:1d:
                    72:eb:17:f0:f0:72:bb:ad:5d:ae:a6:ce:25:e1:e2:
                    7a:86:3f:33:b2:f5:2b:16:68:df:fb:c3:c1:cd:3e:
                    99:16:d9:b5:fe:28:1f:42:b2:b5:74:2d:73:1c:4e:
                    79:d1:f2:58:04:54:20:56:7c:ff:47:24:e4:27:09:
                    d6:94:0c:9b:90:57:9d:89:00:8b:29:d1:e6:bd:c7:
                    1c:39:64:6d:69:0d:15:0e:d6:2c:11:cb:eb:3c:25:
                    47:6f:0c:89:8e:ee:34:37:bc:14:42:18:90:27:4a:
                    bf:c5:f3:6b:c4:59:52:64:ab:4f:0c:99:64:04:6d:
                    52:56:a9:3c:d8:74:64:57:bb:af:94:b1:48:6c:04:
                    04:8a:18:fd:88:bf:94:e2:4a:ba:4e:a3:91:af:da:
                    2b:a9:67:d2:b1:72:c3:33:75:c2:73:97:23:25:6a:
                    a9:93:a0:b0:a3:b7:4e:a6:6c:15:e5:35:4f:28:83:
                    65:15:10:e4:2a:90:4f:c6:10:71:ab:85:d1:5a:f6:
                    f7:a9:fd:ba:ae:32:ea:34:f3:c3:28:e8:c7:0c:92:
                    38:77
                Exponent: 65537 (0x10001)
        X509v3 extensions:
            X509v3 Subject Key Identifier: 
                40:E3:51:6F:00:01:35:F8:A5:21:41:D2:60:B5:F4:D1:FF:C8:33:03
            X509v3 Authority Key Identifier: 
                keyid:97:24:D2:C8:96:CD:B4:9C:71:E9:A9:C4:1C:22:85:9C:F4:0B:39:7A

            X509v3 Basic Constraints: 
                CA:FALSE
            X509v3 Key Usage: 
                Digital Signature, Key Encipherment
    Signature Algorithm: sha256WithRSAEncryption
         11:cb:42:ba:6a:12:b9:b0:71:a8:5d:e5:92:ca:09:56:6a:2b:
         b2:bd:23:fb:8b:f7:fd:ce:ef:42:c5:ef:95:de:7e:bf:82:fe:
         68:eb:4a:a3:82:3d:16:21:90:e6:8e:73:f4:18:c7:2e:22:66:
         5f:03:f8:74:63:3f:e0:6f:80:09:4d:33:d2:f3:02:6d:1a:a7:
         e3:c0:7b:38:b9:33:ec:93:0f:45:90:16:c3:41:1e:43:60:05:
         6c:86:e3:c7:1d:91:a9:73:1e:8f:ee:74:e1:45:50:5b:cf:ff:
         35:a4:59:03:61:b1:21:46:eb:d9:e5:84:58:3e:a8:37:ff:e3:
         8f:50:91:33:7a:04:34:86:ee:54:c1:1e:f4:2e:ee:07:4d:b8:
         96:11:b5:c0:b4:f3:45:6a:05:b8:d5:f3:18:15:0f:4d:47:fc:
         5f:ac:f4:b2:a3:8b:a3:71:ef:5d:da:31:33:66:05:ef:c5:21:
         1c:00:56:50:fd:e0:c8:17:7e:74:20:b4:28:71:23:8c:49:58:
         28:1d:33:5c:21:64:f1:9b:ad:07:a7:01:3d:58:16:3d:0f:50:
         08:c0:5f:be:c6:37:19:1f:fb:eb:a7:b9:b6:90:46:6c:27:fe:
         9c:ca:47:17:6d:bd:15:75:43:2f:e4:54:2d:6b:e8:12:e7:4e:
         5a:b1:33:1e:4a:59:cb:dc:dd:b6:93:ff:47:8d:ed:44:35:7a:
         aa:e9:a6:05:18:c4:98:59:7a:ee:82:79:1b:b9:a3:23:17:23:
         18:d8:66:ba:98:50:02:fc:a5:3a:71:e6:52:99:e6:c3:47:77:
         9a:36:df:31:2e:9f:7d:a1:28:39:8b:08:62:43:a4:86:89:a9:
         ba:8f:f1:27:69:e2:e6:a0:58:bb:f7:85:4f:ea:0c:ed:0d:d4:
         ce:25:c4:8a:1a:c6:80:4f:b7:d3:3b:e1:1d:32:c2:f5:7b:3f:
         73:e7:c6:95:50:26:bd:5e:d4:f3:94:e9:9b:18:21:e7:be:3a:
         66:f3:05:64:fb:7c:e1:e2:92:28:d9:12:9a:e6:54:53:ab:78:
         e2:11:36:dd:36:f5:0d:0b:50:0b:58:16:e8:28:db:de:d1:b3:
         5a:77:91:c6:80:28:3e:a4:3b:52:15:6b:fa:ed:e3:bc:4d:ec:
         15:18:b4:49:21:c2:60:f8:ed:11:57:1f:df:6f:e0:91:ec:6a:
         60:80:28:a3:6a:36:68:5a:ce:c8:98:37:b9:cd:26:62:b6:b5:
         09:1a:af:b8:3f:e1:06:f6:a9:b7:bf:10:24:d3:7f:31:b0:3f:
         3d:df:fd:ba:5c:a4:d7:ec:b8:cd:b6:e2:9a:ca:cc:16:df:e7:
         86:24:12:32:79:66:a8:34
-----BEGIN CERTIFICATE-----
MIIExjCCAq6gAwIBAgIBAjANBgkqhkiG9w0BAQsFADCBijELMAkGA1UEBhMCU0Ux
DjAMBgNVBAgMBVNrYW5lMQ0wCwYDVQQHDARMdW5kMRIwEAYDVQQKDAlDYWx2aW4g
Q0ExFjAUBgNVBAsMDUNBIGRlcGFydG1lbnQxEjAQBgNVBAMMCUNhbHZpbiBDQTEc
MBoGCSqGSIb3DQEJARYNY2FAY2FsdmluLmNvbTAeFw0xNTEwMDkwOTMxNDRaFw0x
ODA3MDUwOTMxNDRaMGYxCzAJBgNVBAYTAlNFMQ4wDAYDVQQIDAVTa2FuZTENMAsG
A1UEBwwETHVuZDEPMA0GA1UECgwGQ2FsdmluMRYwFAYDVQQLDA1DYWx2aW4gY2xp
ZW50MQ8wDQYDVQQDDAZjbGllbnQwggEiMA0GCSqGSIb3DQEBAQUAA4IBDwAwggEK
AoIBAQDVyCXq4J4fT3Grx+tHkjOa54BhhasTriqWPhcGqlBz1T4PFJZBzQOMGy9h
HXLrF/DwcrutXa6mziXh4nqGPzOy9SsWaN/7w8HNPpkW2bX+KB9CsrV0LXMcTnnR
8lgEVCBWfP9HJOQnCdaUDJuQV52JAIsp0ea9xxw5ZG1pDRUO1iwRy+s8JUdvDImO
7jQ3vBRCGJAnSr/F82vEWVJkq08MmWQEbVJWqTzYdGRXu6+UsUhsBASKGP2Iv5Ti
SrpOo5Gv2iupZ9KxcsMzdcJzlyMlaqmToLCjt06mbBXlNU8og2UVEOQqkE/GEHGr
hdFa9vep/bquMuo088Mo6McMkjh3AgMBAAGjWjBYMB0GA1UdDgQWBBRA41FvAAE1
+KUhQdJgtfTR/8gzAzAfBgNVHSMEGDAWgBSXJNLIls20nHHpqcQcIoWc9As5ejAJ
BgNVHRMEAjAAMAsGA1UdDwQEAwIFoDANBgkqhkiG9w0BAQsFAAOCAgEAEctCumoS
ubBxqF3lksoJVmorsr0j+4v3/c7vQsXvld5+v4L+aOtKo4I9FiGQ5o5z9BjHLiJm
XwP4dGM/4G+ACU0z0vMCbRqn48B7OLkz7JMPRZAWw0EeQ2AFbIbjxx2RqXMej+50
4UVQW8//NaRZA2GxIUbr2eWEWD6oN//jj1CRM3oENIbuVMEe9C7uB024lhG1wLTz
RWoFuNXzGBUPTUf8X6z0sqOLo3HvXdoxM2YF78UhHABWUP3gyBd+dCC0KHEjjElY
KB0zXCFk8ZutB6cBPVgWPQ9QCMBfvsY3GR/766e5tpBGbCf+nMpHF229FXVDL+RU
LWvoEudOWrEzHkpZy9zdtpP/R43tRDV6qummBRjEmFl67oJ5G7mjIxcjGNhmuphQ
AvylOnHmUpnmw0d3mjbfMS6ffaEoOYsIYkOkhompuo/xJ2ni5qBYu/eFT+oM7Q3U
ziXEihrGgE+30zvhHTLC9Xs/c+fGlVAmvV7U85Tpmxgh5746ZvMFZPt84eKSKNkS
muZUU6t44hE23Tb1DQtQC1gW6Cjb3tGzWneRxoAoPqQ7UhVr+u3jvE3sFRi0SSHC
YPjtEVcf32/gkexqYIAoo2o2aFrOyJg3uc0mYra1CRqvuD/hBvapt78QJNN/MbA/
Pd/9ulyk1+y4zbbimsrMFt/nhiQSMnlmqDQ=
-----END CERTIFICATE-----
