Certificate:
    Data:
        Version: 3 (0x2)
        Serial Number: 4109 (0x100d)
    Signature Algorithm: sha256WithRSAEncryption
        Issuer: O=testdomain, CN=testCA
        Validity
            Not Before: Apr 22 11:06:13 2016 GMT
            Not After : Apr 21 11:06:13 2021 GMT
        Subject: O=testdomain/dnQualifier=6765252f-7ee7-40de-ab76-bd243a84137c, CN=org.testexample++++testNode1
        Subject Public Key Info:
            Public Key Algorithm: id-ecPublicKey
                Public-Key: (256 bit)
                pub: 
                    04:e4:17:ba:da:e1:70:32:86:e6:e4:9c:f1:3e:7a:
                    ce:7a:c1:6f:0e:6b:4c:42:b4:e7:15:a6:5f:6f:bd:
                    75:95:d4:8b:96:6c:97:75:45:7a:d7:d2:68:1b:16:
                    23:6d:64:91:d7:6d:53:ec:eb:2d:51:3a:b9:f6:17:
                    b7:65:c4:d4:ea
                ASN1 OID: prime256v1
        X509v3 extensions:
            X509v3 Subject Key Identifier: 
                72:77:BF:09:13:F0:70:AE:B9:40:29:F3:32:47:65:5B:15:7F:12:3E
            X509v3 Authority Key Identifier: 
                DirName:/O=testdomain/CN=testCA
                serial:EE:0B:D2:ED:31:CF:74:30

            X509v3 Basic Constraints: 
                CA:FALSE
    Signature Algorithm: sha256WithRSAEncryption
         80:61:5d:52:f4:2b:7f:36:77:d3:47:8b:95:f4:70:76:b7:b8:
         cf:85:2f:a1:94:56:60:ca:7f:9a:52:65:ed:58:b7:7a:54:e0:
         3f:20:c0:f2:83:e4:9c:4f:f2:40:3a:0c:5a:5d:24:08:f7:00:
         5e:2e:29:04:65:34:21:c9:c9:ec:9b:a7:96:eb:b3:ea:74:3a:
         40:09:05:3f:8e:c3:19:bb:9f:ea:5a:3b:01:ff:74:da:6b:51:
         7a:ea:dd:a2:91:bf:bc:ea:02:00:ca:6d:ee:99:a8:68:82:f8:
         f6:03:38:b0:57:a7:31:9d:13:8d:2d:9b:52:a5:68:8a:11:17:
         5e:e1:cf:7f:92:3a:ff:89:fc:6c:2b:78:3b:05:9e:fc:ba:c9:
         d7:55:bf:53:29:b1:48:75:21:09:32:12:a4:ad:18:c2:35:ee:
         33:dc:35:ef:2d:70:0e:a2:d7:6c:56:8b:96:54:04:08:ed:60:
         b4:0e:7f:21:82:d8:61:96:80:10:24:f1:d8:60:18:0a:a2:28:
         b5:aa:68:3b:9f:d6:9d:54:73:57:25:b2:40:ac:51:73:03:e0:
         b4:32:36:94:1c:55:59:08:2c:9c:d5:49:0b:d6:af:92:0d:56:
         e2:61:7f:30:e3:40:ab:80:73:eb:3d:b5:c7:74:b1:8e:8d:1d:
         40:00:f1:9a
-----BEGIN CERTIFICATE-----
MIICsDCCAZigAwIBAgICEA0wDQYJKoZIhvcNAQELBQAwJjETMBEGA1UEChMKdGVz
dGRvbWFpbjEPMA0GA1UEAxMGdGVzdENBMB4XDTE2MDQyMjExMDYxM1oXDTIxMDQy
MTExMDYxM1owazETMBEGA1UECgwKdGVzdGRvbWFpbjEtMCsGA1UELhMkNjc2NTI1
MmYtN2VlNy00MGRlLWFiNzYtYmQyNDNhODQxMzdjMSUwIwYDVQQDDBxvcmcudGVz
dGV4YW1wbGUrKysrdGVzdE5vZGUxMFkwEwYHKoZIzj0CAQYIKoZIzj0DAQcDQgAE
5Be62uFwMobm5JzxPnrOesFvDmtMQrTnFaZfb711ldSLlmyXdUV619JoGxYjbWSR
121T7OstUTq59he3ZcTU6qNuMGwwHQYDVR0OBBYEFHJ3vwkT8HCuuUAp8zJHZVsV
fxI+MEAGA1UdIwQ5MDehKqQoMCYxEzARBgNVBAoTCnRlc3Rkb21haW4xDzANBgNV
BAMTBnRlc3RDQYIJAO4L0u0xz3QwMAkGA1UdEwQCMAAwDQYJKoZIhvcNAQELBQAD
ggEBAIBhXVL0K382d9NHi5X0cHa3uM+FL6GUVmDKf5pSZe1Yt3pU4D8gwPKD5JxP
8kA6DFpdJAj3AF4uKQRlNCHJyeybp5brs+p0OkAJBT+Owxm7n+paOwH/dNprUXrq
3aKRv7zqAgDKbe6ZqGiC+PYDOLBXpzGdE40tm1KlaIoRF17hz3+SOv+J/GwreDsF
nvy6yddVv1MpsUh1IQkyEqStGMI17jPcNe8tcA6i12xWi5ZUBAjtYLQOfyGC2GGW
gBAk8dhgGAqiKLWqaDuf1p1Uc1clskCsUXMD4LQyNpQcVVkILJzVSQvWr5INVuJh
fzDjQKuAc+s9tcd0sY6NHUAA8Zo=
-----END CERTIFICATE-----
