Certificate:
    Data:
        Version: 3 (0x2)
        Serial Number: 4111 (0x100f)
    Signature Algorithm: sha256WithRSAEncryption
        Issuer: O=SJ, CN=SJCA
        Validity
            Not Before: Sep 29 14:09:49 2016 GMT
            Not After : Sep 29 14:09:49 2017 GMT
        Subject: O=SJ/dnQualifier=b0734aab-8f92-44bd-a877-b59c94ba5b4d, CN=SJ++++Sthlm_InfoBoard
        Subject Public Key Info:
            Public Key Algorithm: id-ecPublicKey
                Public-Key: (256 bit)
                pub: 
                    04:31:79:d6:26:59:f3:8c:f9:06:7d:ea:2c:77:dc:
                    3f:68:9b:f3:ac:b8:2b:e7:0c:9b:54:52:c2:a1:a9:
                    6f:89:2e:a6:c5:65:a4:32:ba:b9:54:b3:83:5a:b7:
                    4f:6d:18:9e:06:1c:e6:ce:52:36:41:31:6b:e7:08:
                    37:4f:e6:c0:13
                ASN1 OID: prime256v1
        X509v3 extensions:
            X509v3 Subject Key Identifier: 
                9B:A0:58:24:52:AE:06:EC:17:BA:CD:95:AE:9B:CE:D8:1D:61:48:6B
            X509v3 Authority Key Identifier: 
                DirName:/O=SJ/CN=SJCA
                serial:94:07:BE:86:FA:F6:6A:26

            X509v3 Basic Constraints: 
                CA:FALSE
    Signature Algorithm: sha256WithRSAEncryption
         89:7e:83:55:15:ea:cc:82:c8:76:12:70:4a:ff:ad:f7:dc:38:
         0c:41:af:c0:cc:25:a8:af:45:28:2d:d0:22:4d:99:0d:a3:b8:
         6c:64:a7:f5:e4:b0:d0:d7:05:94:66:6f:de:9c:00:3c:b5:2d:
         60:b2:fb:ab:54:3f:61:d6:7a:2d:95:ab:1a:47:82:4d:62:59:
         4d:f2:c1:3f:aa:7b:13:99:90:63:26:53:36:5d:7a:26:57:a8:
         14:06:53:44:46:af:7d:e9:f8:02:a5:3e:a3:96:c5:59:74:1b:
         07:58:0f:65:01:00:25:78:2b:af:04:8b:65:38:c8:6f:fe:36:
         7e:83:e9:f6:cb:b3:d5:71:97:28:01:75:d8:63:2c:52:66:66:
         61:3c:c1:9f:f6:f8:13:b9:05:e5:01:89:36:5e:61:91:1e:de:
         3a:07:3e:04:3d:29:51:ba:39:0a:64:77:11:6b:76:c0:e3:df:
         40:3c:69:ab:5b:60:d0:29:dd:3b:85:b1:f6:9a:05:44:46:8e:
         69:21:43:32:8a:d4:ad:1e:e1:c3:ec:81:26:f1:ca:73:64:82:
         6a:92:ea:b7:77:db:fc:57:bb:df:c8:7d:d5:ff:bc:d1:16:b3:
         dc:6c:6e:a3:d7:c9:97:2b:69:50:62:23:61:d3:74:28:f2:32:
         c0:e3:30:5d
-----BEGIN CERTIFICATE-----
MIICjTCCAXWgAwIBAgICEA8wDQYJKoZIhvcNAQELBQAwHDELMAkGA1UEChMCU0ox
DTALBgNVBAMTBFNKQ0EwHhcNMTYwOTI5MTQwOTQ5WhcNMTcwOTI5MTQwOTQ5WjBc
MQswCQYDVQQKDAJTSjEtMCsGA1UELhMkYjA3MzRhYWItOGY5Mi00NGJkLWE4Nzct
YjU5Yzk0YmE1YjRkMR4wHAYDVQQDDBVTSisrKytTdGhsbV9JbmZvQm9hcmQwWTAT
BgcqhkjOPQIBBggqhkjOPQMBBwNCAAQxedYmWfOM+QZ96ix33D9om/OsuCvnDJtU
UsKhqW+JLqbFZaQyurlUs4Nat09tGJ4GHObOUjZBMWvnCDdP5sATo2QwYjAdBgNV
HQ4EFgQUm6BYJFKuBuwXus2VrpvO2B1hSGswNgYDVR0jBC8wLaEgpB4wHDELMAkG
A1UEChMCU0oxDTALBgNVBAMTBFNKQ0GCCQCUB76G+vZqJjAJBgNVHRMEAjAAMA0G
CSqGSIb3DQEBCwUAA4IBAQCJfoNVFerMgsh2EnBK/6333DgMQa/AzCWor0UoLdAi
TZkNo7hsZKf15LDQ1wWUZm/enAA8tS1gsvurVD9h1notlasaR4JNYllN8sE/qnsT
mZBjJlM2XXomV6gUBlNERq996fgCpT6jlsVZdBsHWA9lAQAleCuvBItlOMhv/jZ+
g+n2y7PVcZcoAXXYYyxSZmZhPMGf9vgTuQXlAYk2XmGRHt46Bz4EPSlRujkKZHcR
a3bA499APGmrW2DQKd07hbH2mgVERo5pIUMyitStHuHD7IEm8cpzZIJqkuq3d9v8
V7vfyH3V/7zRFrPcbG6j18mXK2lQYiNh03Qo8jLA4zBd
-----END CERTIFICATE-----
