Certificate:
    Data:
        Version: 3 (0x2)
        Serial Number: 4099 (0x1003)
    Signature Algorithm: sha256WithRSAEncryption
        Issuer: O=SJ, CN=SJCA
        Validity
            Not Before: Sep 29 14:09:48 2016 GMT
            Not After : Sep 29 14:09:48 2017 GMT
        Subject: O=SJ/dnQualifier=432a7b92-ece7-4522-a16b-9394088284e8, CN=SJ++++Servo
        Subject Public Key Info:
            Public Key Algorithm: id-ecPublicKey
                Public-Key: (256 bit)
                pub: 
                    04:25:ec:49:2b:eb:13:e3:3b:b6:c2:7c:3c:43:45:
                    f1:c2:fc:43:47:49:3f:d0:4d:7e:fa:60:20:80:0e:
                    d0:89:8b:e9:d9:10:27:b6:c2:72:8b:62:ea:a3:9d:
                    4c:bc:a1:a5:9a:35:55:7f:69:b8:69:d0:2b:70:6f:
                    8e:65:46:95:fb
                ASN1 OID: prime256v1
        X509v3 extensions:
            X509v3 Subject Key Identifier: 
                EC:4C:AD:C9:6F:91:50:9C:53:BE:D8:A3:B1:F4:38:27:35:DE:C8:3D
            X509v3 Authority Key Identifier: 
                DirName:/O=SJ/CN=SJCA
                serial:94:07:BE:86:FA:F6:6A:26

            X509v3 Basic Constraints: 
                CA:FALSE
    Signature Algorithm: sha256WithRSAEncryption
         6d:8d:5d:ed:00:88:bf:dc:59:51:94:84:fb:66:5c:94:94:f5:
         21:df:bc:f1:e7:32:cc:77:4a:c1:5c:91:63:9e:05:f5:47:31:
         c3:ab:7a:7c:23:9b:af:8e:02:e0:43:01:04:dd:f8:28:40:d1:
         79:9b:cd:d4:bc:a8:4c:50:ac:e7:e0:c6:ad:32:00:70:c2:cc:
         06:74:26:49:59:a4:9a:6e:b2:97:45:77:4d:35:28:dd:f3:15:
         ff:87:f6:20:c1:32:f1:f8:aa:a2:b6:26:7a:48:d9:df:9c:98:
         9f:cb:a2:b0:c0:97:d7:90:7c:7e:16:9e:c2:d4:64:ba:ed:79:
         b8:14:2b:f1:fd:f5:77:d0:50:e7:26:7a:b1:4c:c9:8f:7f:24:
         52:9e:51:4a:22:eb:02:f7:1c:cb:60:a4:1f:22:8a:9e:da:de:
         8a:ce:18:6d:47:91:9a:ab:b4:60:95:82:ae:e0:28:95:bb:cf:
         d8:b7:98:e7:e9:d7:23:3c:f0:f5:59:5e:a6:d2:aa:0e:4a:b3:
         5e:da:85:9d:2b:71:23:6b:5f:94:59:b1:30:36:ae:cd:b0:1c:
         d3:d7:fd:10:c3:4a:bd:52:1b:6d:a4:a4:6b:4b:74:01:f9:2a:
         04:e9:d8:c1:f5:7e:80:c4:13:62:11:7a:f4:44:f4:fd:95:b0:
         15:1f:1f:6e
-----BEGIN CERTIFICATE-----
MIICgzCCAWugAwIBAgICEAMwDQYJKoZIhvcNAQELBQAwHDELMAkGA1UEChMCU0ox
DTALBgNVBAMTBFNKQ0EwHhcNMTYwOTI5MTQwOTQ4WhcNMTcwOTI5MTQwOTQ4WjBS
MQswCQYDVQQKDAJTSjEtMCsGA1UELhMkNDMyYTdiOTItZWNlNy00NTIyLWExNmIt
OTM5NDA4ODI4NGU4MRQwEgYDVQQDDAtTSisrKytTZXJ2bzBZMBMGByqGSM49AgEG
CCqGSM49AwEHA0IABCXsSSvrE+M7tsJ8PENF8cL8Q0dJP9BNfvpgIIAO0ImL6dkQ
J7bCcoti6qOdTLyhpZo1VX9puGnQK3BvjmVGlfujZDBiMB0GA1UdDgQWBBTsTK3J
b5FQnFO+2KOx9DgnNd7IPTA2BgNVHSMELzAtoSCkHjAcMQswCQYDVQQKEwJTSjEN
MAsGA1UEAxMEU0pDQYIJAJQHvob69momMAkGA1UdEwQCMAAwDQYJKoZIhvcNAQEL
BQADggEBAG2NXe0AiL/cWVGUhPtmXJSU9SHfvPHnMsx3SsFckWOeBfVHMcOrenwj
m6+OAuBDAQTd+ChA0XmbzdS8qExQrOfgxq0yAHDCzAZ0JklZpJpuspdFd001KN3z
Ff+H9iDBMvH4qqK2JnpI2d+cmJ/LorDAl9eQfH4WnsLUZLrtebgUK/H99XfQUOcm
erFMyY9/JFKeUUoi6wL3HMtgpB8iip7a3orOGG1HkZqrtGCVgq7gKJW7z9i3mOfp
1yM88PVZXqbSqg5Ks17ahZ0rcSNrX5RZsTA2rs2wHNPX/RDDSr1SG22kpGtLdAH5
KgTp2MH1foDEE2IRevRE9P2VsBUfH24=
-----END CERTIFICATE-----
