Certificate:
    Data:
        Version: 3 (0x2)
        Serial Number: 4103 (0x1007)
    Signature Algorithm: sha256WithRSAEncryption
        Issuer: O=SJ, CN=SJCA
        Validity
            Not Before: Sep 29 14:09:48 2016 GMT
            Not After : Sep 29 14:09:48 2017 GMT
        Subject: O=SJ/dnQualifier=65712b7a-9c48-4774-bb3e-7de781226963, CN=SJ++++Lund_RFID
        Subject Public Key Info:
            Public Key Algorithm: id-ecPublicKey
                Public-Key: (256 bit)
                pub: 
                    04:d0:c4:36:77:0e:8a:f9:f5:23:4e:79:23:86:92:
                    ac:dd:ef:72:51:ba:2e:2a:0f:6e:2e:ab:2f:c5:d4:
                    38:3c:f0:b2:42:0d:f3:de:cf:c0:a6:fd:e5:01:53:
                    38:f3:4d:30:44:15:9f:fe:72:a9:f5:61:e6:c1:22:
                    c0:f2:26:b9:47
                ASN1 OID: prime256v1
        X509v3 extensions:
            X509v3 Subject Key Identifier: 
                41:CA:D4:F7:B2:54:0A:4D:8D:02:9D:91:72:28:B4:75:2D:BE:C1:C8
            X509v3 Authority Key Identifier: 
                DirName:/O=SJ/CN=SJCA
                serial:94:07:BE:86:FA:F6:6A:26

            X509v3 Basic Constraints: 
                CA:FALSE
    Signature Algorithm: sha256WithRSAEncryption
         7d:9a:2c:44:b3:b4:6b:3f:2d:e4:84:dc:5d:fe:af:6d:d0:e5:
         d7:93:66:82:98:80:86:31:66:d0:52:fa:36:25:f7:4b:40:14:
         ee:5b:04:30:a2:42:78:ac:6d:04:5c:74:1f:23:8a:60:f7:35:
         99:18:81:d6:c1:c8:43:6a:04:e1:b6:ff:8c:6b:67:75:50:70:
         42:65:d3:c8:d9:0c:de:4c:dc:ed:1d:b7:86:c8:f1:26:dc:c6:
         9c:6a:13:9e:7c:e7:19:c4:2c:8c:0d:93:3f:31:6f:b9:a6:ab:
         fb:9c:c5:e1:63:3d:7f:c6:26:7a:43:8f:53:50:47:63:7f:31:
         a4:17:0c:13:98:1d:2e:ea:52:33:12:1f:c9:ca:5d:a0:7a:fc:
         aa:b3:72:5d:62:16:ce:91:67:53:b3:9b:de:21:d8:a9:8f:47:
         d2:e4:d7:6c:83:39:32:26:8c:9a:87:91:6f:52:04:56:0a:01:
         02:55:40:fd:ae:25:de:e1:e5:f8:39:2f:83:c1:44:5d:47:19:
         03:a5:08:cc:60:7d:36:c6:3e:b1:98:ad:e1:53:f6:c4:ff:6c:
         18:8a:ee:ff:e4:df:78:d7:6c:24:81:e5:4d:a0:10:84:e0:28:
         64:ee:04:e2:3c:a8:5f:ee:8f:35:19:21:ea:50:3b:9a:37:8e:
         4b:4e:74:5b
-----BEGIN CERTIFICATE-----
MIIChzCCAW+gAwIBAgICEAcwDQYJKoZIhvcNAQELBQAwHDELMAkGA1UEChMCU0ox
DTALBgNVBAMTBFNKQ0EwHhcNMTYwOTI5MTQwOTQ4WhcNMTcwOTI5MTQwOTQ4WjBW
MQswCQYDVQQKDAJTSjEtMCsGA1UELhMkNjU3MTJiN2EtOWM0OC00Nzc0LWJiM2Ut
N2RlNzgxMjI2OTYzMRgwFgYDVQQDDA9TSisrKytMdW5kX1JGSUQwWTATBgcqhkjO
PQIBBggqhkjOPQMBBwNCAATQxDZ3Dor59SNOeSOGkqzd73JRui4qD24uqy/F1Dg8
8LJCDfPez8Cm/eUBUzjzTTBEFZ/+cqn1YebBIsDyJrlHo2QwYjAdBgNVHQ4EFgQU
QcrU97JUCk2NAp2Rcii0dS2+wcgwNgYDVR0jBC8wLaEgpB4wHDELMAkGA1UEChMC
U0oxDTALBgNVBAMTBFNKQ0GCCQCUB76G+vZqJjAJBgNVHRMEAjAAMA0GCSqGSIb3
DQEBCwUAA4IBAQB9mixEs7RrPy3khNxd/q9t0OXXk2aCmICGMWbQUvo2JfdLQBTu
WwQwokJ4rG0EXHQfI4pg9zWZGIHWwchDagThtv+Ma2d1UHBCZdPI2QzeTNztHbeG
yPEm3MacahOefOcZxCyMDZM/MW+5pqv7nMXhYz1/xiZ6Q49TUEdjfzGkFwwTmB0u
6lIzEh/Jyl2gevyqs3JdYhbOkWdTs5veIdipj0fS5NdsgzkyJoyah5FvUgRWCgEC
VUD9riXe4eX4OS+DwURdRxkDpQjMYH02xj6xmK3hU/bE/2wYiu7/5N9412wkgeVN
oBCE4Chk7gTiPKhf7o81GSHqUDuaN45LTnRb
-----END CERTIFICATE-----
