Certificate:
    Data:
        Version: 3 (0x2)
        Serial Number: 4101 (0x1005)
    Signature Algorithm: sha256WithRSAEncryption
        Issuer: O=testdomain, CN=testCA
        Validity
            Not Before: Mar 16 13:17:39 2016 GMT
            Not After : Mar 16 13:17:39 2017 GMT
        Subject: O=testdomain/dnQualifier=5cf1dedf-ce32-4838-b6fe-b922ef3bbad6, CN=org.testexample++++testNode2
        Subject Public Key Info:
            Public Key Algorithm: id-ecPublicKey
                Public-Key: (256 bit)
                pub: 
                    04:cb:67:21:08:bf:91:85:70:b1:a6:b1:7b:8d:7f:
                    a5:dc:c6:68:e0:ce:74:20:39:26:e5:cc:9e:20:34:
                    a9:95:50:45:32:aa:c2:c1:cd:89:db:47:62:1b:e6:
                    bc:c9:53:aa:f0:8d:bc:52:23:51:fe:a9:95:8b:12:
                    da:46:82:50:ea
                ASN1 OID: prime256v1
        X509v3 extensions:
            X509v3 Subject Key Identifier: 
                93:D5:8C:21:53:07:F5:1C:9F:05:E2:FA:01:2A:2C:A9:D4:5D:22:E1
            X509v3 Authority Key Identifier: 
                DirName:/O=testdomain/CN=testCA
                serial:92:AC:B0:57:2D:08:61:1C

            X509v3 Basic Constraints: 
                CA:FALSE
    Signature Algorithm: sha256WithRSAEncryption
         07:07:77:b2:c9:eb:3d:d7:ce:6a:f6:cd:e6:23:08:bc:f9:b4:
         4e:2c:72:22:c9:8c:5e:e3:07:f5:e8:2b:a3:a8:d5:07:9b:16:
         3a:e5:10:90:ce:b9:a7:db:c2:bb:c9:f7:b2:c4:97:f5:15:90:
         a5:f6:4d:2d:76:fe:ea:2d:4e:1b:a4:5b:99:5c:07:96:04:4e:
         07:16:4f:1b:0c:81:bf:28:3a:1d:4b:a1:b7:2a:4e:36:b1:50:
         86:e9:8e:a9:4a:f4:2a:10:6b:b5:d5:69:40:54:e6:05:95:6b:
         cb:a9:ba:b5:0f:ef:f8:a2:64:c5:89:e5:40:e4:46:23:7d:eb:
         ba:39:77:d4:f0:da:58:9f:ed:f4:9f:0b:cd:de:07:4a:bc:e8:
         f9:47:61:81:6f:eb:66:7e:ff:36:1d:68:3b:27:3d:ae:20:b1:
         c6:72:3b:4a:75:20:cc:22:2d:0d:d6:76:32:42:38:7f:6e:16:
         05:73:6e:d7:8f:dc:91:a9:77:cf:00:71:03:f2:28:e7:75:fa:
         c5:f1:1b:b6:bd:ec:a1:e5:f3:4d:4d:fb:24:d9:10:1d:43:57:
         b4:8e:5b:22:55:1e:74:c8:ee:39:a7:fb:1a:a0:20:08:69:b2:
         89:3b:10:58:d5:81:21:c7:fb:1c:98:36:bb:6a:e2:1f:76:d0:
         85:e8:ba:82
-----BEGIN CERTIFICATE-----
MIICsDCCAZigAwIBAgICEAUwDQYJKoZIhvcNAQELBQAwJjETMBEGA1UEChMKdGVz
dGRvbWFpbjEPMA0GA1UEAxMGdGVzdENBMB4XDTE2MDMxNjEzMTczOVoXDTE3MDMx
NjEzMTczOVowazETMBEGA1UECgwKdGVzdGRvbWFpbjEtMCsGA1UELhMkNWNmMWRl
ZGYtY2UzMi00ODM4LWI2ZmUtYjkyMmVmM2JiYWQ2MSUwIwYDVQQDDBxvcmcudGVz
dGV4YW1wbGUrKysrdGVzdE5vZGUyMFkwEwYHKoZIzj0CAQYIKoZIzj0DAQcDQgAE
y2chCL+RhXCxprF7jX+l3MZo4M50IDkm5cyeIDSplVBFMqrCwc2J20diG+a8yVOq
8I28UiNR/qmVixLaRoJQ6qNuMGwwHQYDVR0OBBYEFJPVjCFTB/UcnwXi+gEqLKnU
XSLhMEAGA1UdIwQ5MDehKqQoMCYxEzARBgNVBAoTCnRlc3Rkb21haW4xDzANBgNV
BAMTBnRlc3RDQYIJAJKssFctCGEcMAkGA1UdEwQCMAAwDQYJKoZIhvcNAQELBQAD
ggEBAAcHd7LJ6z3Xzmr2zeYjCLz5tE4sciLJjF7jB/XoK6Oo1QebFjrlEJDOuafb
wrvJ97LEl/UVkKX2TS12/uotThukW5lcB5YETgcWTxsMgb8oOh1LobcqTjaxUIbp
jqlK9CoQa7XVaUBU5gWVa8upurUP7/iiZMWJ5UDkRiN967o5d9Tw2lif7fSfC83e
B0q86PlHYYFv62Z+/zYdaDsnPa4gscZyO0p1IMwiLQ3WdjJCOH9uFgVzbteP3JGp
d88AcQPyKOd1+sXxG7a97KHl801N+yTZEB1DV7SOWyJVHnTI7jmn+xqgIAhpsok7
EFjVgSHH+xyYNrtq4h920IXouoI=
-----END CERTIFICATE-----
