Certificate:
    Data:
        Version: 3 (0x2)
        Serial Number: 4099 (0x1003)
    Signature Algorithm: sha256WithRSAEncryption
        Issuer: O=testdomain, CN=testCA
        Validity
            Not Before: Mar 16 13:17:39 2016 GMT
            Not After : Mar 16 13:17:39 2017 GMT
        Subject: O=testdomain/dnQualifier=3d734fef-1822-4c3f-9225-1b2ce4f827fd, CN=org.testexample++++testNode3
        Subject Public Key Info:
            Public Key Algorithm: id-ecPublicKey
                Public-Key: (256 bit)
                pub: 
                    04:27:c3:35:4f:67:52:bc:81:87:a7:8d:14:e5:99:
                    b2:e7:cb:5e:78:cb:f0:96:e3:26:d4:6c:82:15:4b:
                    a1:ed:94:36:ba:33:de:cb:ef:36:c2:2b:c7:20:42:
                    f5:fb:23:51:0c:02:47:b8:42:5d:b4:43:ee:2d:1e:
                    dc:dc:3b:bc:1b
                ASN1 OID: prime256v1
        X509v3 extensions:
            X509v3 Subject Key Identifier: 
                BD:A6:44:05:D4:02:87:E9:FC:67:B1:92:51:63:34:6A:35:70:61:19
            X509v3 Authority Key Identifier: 
                DirName:/O=testdomain/CN=testCA
                serial:92:AC:B0:57:2D:08:61:1C

            X509v3 Basic Constraints: 
                CA:FALSE
    Signature Algorithm: sha256WithRSAEncryption
         12:95:2c:99:3f:56:38:24:94:37:6f:5b:84:78:de:ab:4c:a4:
         a3:5c:7a:76:da:7c:8b:03:aa:b2:b0:c8:09:6a:a3:7e:a8:35:
         ce:5d:2d:08:66:ec:32:55:f1:17:45:07:3e:7c:f9:0a:e1:8e:
         0e:5e:2f:5f:c5:89:39:89:24:ed:02:3c:63:52:4b:ce:34:42:
         c6:eb:4d:51:d5:1c:d5:3b:7f:2c:28:b6:ab:60:4f:e1:21:d3:
         68:3c:a2:b5:84:97:4b:e7:f1:8b:f4:6a:9c:05:f3:20:6e:e3:
         81:06:77:de:00:4a:46:d4:ca:df:7b:20:9e:14:90:43:7a:10:
         58:2f:45:92:34:a4:c9:2f:cc:98:36:b6:b3:05:97:a6:8a:45:
         2f:54:8b:f0:04:e9:a9:99:3b:fe:9e:62:4d:a4:a6:e2:f1:68:
         b6:42:f2:7f:a1:66:2f:06:1e:f5:86:11:01:08:44:b3:20:c9:
         20:62:21:3f:d3:7c:e5:bf:b3:f4:ff:81:03:da:86:a1:2d:8d:
         26:c1:9a:32:f1:9a:75:77:ef:95:66:96:f1:84:87:91:51:9e:
         7d:a2:ee:9f:7e:66:b2:20:fb:9b:5d:1b:48:4a:9d:bb:94:5a:
         7a:fc:ff:92:30:62:f7:3e:d8:34:d8:05:dc:f3:58:18:34:60:
         22:ed:6c:4b
-----BEGIN CERTIFICATE-----
MIICsDCCAZigAwIBAgICEAMwDQYJKoZIhvcNAQELBQAwJjETMBEGA1UEChMKdGVz
dGRvbWFpbjEPMA0GA1UEAxMGdGVzdENBMB4XDTE2MDMxNjEzMTczOVoXDTE3MDMx
NjEzMTczOVowazETMBEGA1UECgwKdGVzdGRvbWFpbjEtMCsGA1UELhMkM2Q3MzRm
ZWYtMTgyMi00YzNmLTkyMjUtMWIyY2U0ZjgyN2ZkMSUwIwYDVQQDDBxvcmcudGVz
dGV4YW1wbGUrKysrdGVzdE5vZGUzMFkwEwYHKoZIzj0CAQYIKoZIzj0DAQcDQgAE
J8M1T2dSvIGHp40U5Zmy58teeMvwluMm1GyCFUuh7ZQ2ujPey+82wivHIEL1+yNR
DAJHuEJdtEPuLR7c3Du8G6NuMGwwHQYDVR0OBBYEFL2mRAXUAofp/GexklFjNGo1
cGEZMEAGA1UdIwQ5MDehKqQoMCYxEzARBgNVBAoTCnRlc3Rkb21haW4xDzANBgNV
BAMTBnRlc3RDQYIJAJKssFctCGEcMAkGA1UdEwQCMAAwDQYJKoZIhvcNAQELBQAD
ggEBABKVLJk/VjgklDdvW4R43qtMpKNcenbafIsDqrKwyAlqo36oNc5dLQhm7DJV
8RdFBz58+Qrhjg5eL1/FiTmJJO0CPGNSS840QsbrTVHVHNU7fywotqtgT+Eh02g8
orWEl0vn8Yv0apwF8yBu44EGd94ASkbUyt97IJ4UkEN6EFgvRZI0pMkvzJg2trMF
l6aKRS9Ui/AE6amZO/6eYk2kpuLxaLZC8n+hZi8GHvWGEQEIRLMgySBiIT/TfOW/
s/T/gQPahqEtjSbBmjLxmnV375VmlvGEh5FRnn2i7p9+ZrIg+5tdG0hKnbuUWnr8
/5IwYvc+2DTYBdzzWBg0YCLtbEs=
-----END CERTIFICATE-----
