Certificate:
    Data:
        Version: 3 (0x2)
        Serial Number: 4111 (0x100f)
    Signature Algorithm: sha256WithRSAEncryption
        Issuer: O=testdomain, CN=testCA
        Validity
            Not Before: Apr 22 11:06:13 2016 GMT
            Not After : Apr 21 11:06:13 2021 GMT
        Subject: O=testdomain/dnQualifier=3b974486-810f-4d11-9463-ba28e83c8fbd, CN=org.testexample++++testNode3
        Subject Public Key Info:
            Public Key Algorithm: id-ecPublicKey
                Public-Key: (256 bit)
                pub: 
                    04:3f:35:d5:07:fd:f0:04:3a:af:25:61:7e:f4:81:
                    56:52:ac:06:cd:2b:81:8d:c4:c2:fa:47:86:84:7d:
                    0a:2c:c9:8f:3e:fb:4e:f5:9e:54:11:98:d1:3f:70:
                    ed:ee:13:dc:03:95:c8:18:6f:d8:3d:d7:f0:9f:64:
                    ae:88:63:eb:06
                ASN1 OID: prime256v1
        X509v3 extensions:
            X509v3 Subject Key Identifier: 
                D9:64:4B:DF:04:A5:99:15:2B:14:B7:2D:76:C7:03:83:26:92:46:34
            X509v3 Authority Key Identifier: 
                DirName:/O=testdomain/CN=testCA
                serial:EE:0B:D2:ED:31:CF:74:30

            X509v3 Basic Constraints: 
                CA:FALSE
    Signature Algorithm: sha256WithRSAEncryption
         24:03:d7:30:8f:13:a1:fa:3e:16:80:34:2a:41:08:52:14:34:
         b5:2d:4b:5e:6d:b9:f4:9a:66:77:d8:19:6a:86:ac:93:2a:69:
         e5:c7:9a:6c:98:c8:79:64:74:ff:32:da:0f:fd:37:99:0f:8c:
         72:56:c5:5d:d2:83:76:ef:2a:9d:9c:ab:44:39:92:6c:ab:47:
         53:d0:b1:95:b7:13:ad:12:4e:d8:10:6c:4b:01:d9:3e:91:6e:
         39:8a:3b:20:3e:0b:20:25:c3:06:2d:55:50:c5:8c:d8:cf:81:
         6f:58:16:57:38:3a:e4:f3:ef:7f:88:07:c9:37:25:13:d8:5c:
         9c:42:f8:74:64:c5:7c:53:cc:92:3f:81:15:29:70:db:bd:04:
         4e:66:34:2f:d2:67:fd:72:91:8f:e9:8c:53:a6:ec:ba:0b:8d:
         ee:7d:64:46:5b:dd:3e:0f:06:85:9c:bc:d3:02:8c:6a:4b:ba:
         fc:a8:42:15:3c:4c:b4:57:ea:fc:1a:da:01:76:97:a6:b8:da:
         5e:52:c2:20:e4:c3:fd:3a:4c:02:5f:12:37:63:d3:7e:80:c5:
         8f:a1:69:8f:53:81:06:6f:79:7c:1e:7b:eb:b2:89:9f:ad:a5:
         6f:12:d6:b7:fb:f1:d1:29:7b:ab:35:aa:8d:d5:7a:8a:5f:c3:
         ea:f0:1f:e4
-----BEGIN CERTIFICATE-----
MIICsDCCAZigAwIBAgICEA8wDQYJKoZIhvcNAQELBQAwJjETMBEGA1UEChMKdGVz
dGRvbWFpbjEPMA0GA1UEAxMGdGVzdENBMB4XDTE2MDQyMjExMDYxM1oXDTIxMDQy
MTExMDYxM1owazETMBEGA1UECgwKdGVzdGRvbWFpbjEtMCsGA1UELhMkM2I5NzQ0
ODYtODEwZi00ZDExLTk0NjMtYmEyOGU4M2M4ZmJkMSUwIwYDVQQDDBxvcmcudGVz
dGV4YW1wbGUrKysrdGVzdE5vZGUzMFkwEwYHKoZIzj0CAQYIKoZIzj0DAQcDQgAE
PzXVB/3wBDqvJWF+9IFWUqwGzSuBjcTC+keGhH0KLMmPPvtO9Z5UEZjRP3Dt7hPc
A5XIGG/YPdfwn2SuiGPrBqNuMGwwHQYDVR0OBBYEFNlkS98EpZkVKxS3LXbHA4Mm
kkY0MEAGA1UdIwQ5MDehKqQoMCYxEzARBgNVBAoTCnRlc3Rkb21haW4xDzANBgNV
BAMTBnRlc3RDQYIJAO4L0u0xz3QwMAkGA1UdEwQCMAAwDQYJKoZIhvcNAQELBQAD
ggEBACQD1zCPE6H6PhaANCpBCFIUNLUtS15tufSaZnfYGWqGrJMqaeXHmmyYyHlk
dP8y2g/9N5kPjHJWxV3Sg3bvKp2cq0Q5kmyrR1PQsZW3E60STtgQbEsB2T6RbjmK
OyA+CyAlwwYtVVDFjNjPgW9YFlc4OuTz73+IB8k3JRPYXJxC+HRkxXxTzJI/gRUp
cNu9BE5mNC/SZ/1ykY/pjFOm7LoLje59ZEZb3T4PBoWcvNMCjGpLuvyoQhU8TLRX
6vwa2gF2l6a42l5SwiDkw/06TAJfEjdj036AxY+haY9TgQZveXwee+uyiZ+tpW8S
1rf78dEpe6s1qo3Veopfw+rwH+Q=
-----END CERTIFICATE-----
