Certificate:
    Data:
        Version: 3 (0x2)
        Serial Number: 4097 (0x1001)
    Signature Algorithm: sha256WithRSAEncryption
        Issuer: O=SJ, CN=SJCA
        Validity
            Not Before: Sep 29 14:09:48 2016 GMT
            Not After : Sep 29 14:09:48 2017 GMT
        Subject: O=SJ/dnQualifier=2a44bdc8-4f8c-4477-aade-fbb36b04ce21, CN=SJ++++ELX
        Subject Public Key Info:
            Public Key Algorithm: id-ecPublicKey
                Public-Key: (256 bit)
                pub: 
                    04:a4:b5:9c:84:35:0b:37:c8:f3:99:0f:e1:65:d4:
                    b7:77:2f:ec:21:fe:97:1e:60:75:70:c4:10:15:4d:
                    c2:2d:42:3e:51:e8:df:ba:b2:f0:82:f4:6c:6a:57:
                    97:88:15:2b:b0:0a:4c:9d:84:ef:af:f8:37:98:b9:
                    cf:13:67:79:e4
                ASN1 OID: prime256v1
        X509v3 extensions:
            X509v3 Subject Key Identifier: 
                28:D6:8E:C1:5F:2F:3B:E3:F8:C7:81:1C:63:26:6B:1A:F6:26:B7:12
            X509v3 Authority Key Identifier: 
                DirName:/O=SJ/CN=SJCA
                serial:94:07:BE:86:FA:F6:6A:26

            X509v3 Basic Constraints: 
                CA:FALSE
    Signature Algorithm: sha256WithRSAEncryption
         31:fe:a1:2e:b8:20:55:9b:38:1d:62:a4:f1:6d:1c:33:81:11:
         9f:1e:3d:70:66:ed:c0:74:03:60:ae:11:be:95:d2:0b:91:cd:
         c8:ba:c1:c3:0a:30:5b:2f:d3:36:b6:e3:b7:4c:2f:4a:f6:38:
         b4:65:33:c3:89:5a:e1:dd:19:fd:f9:85:1e:58:b2:e6:20:e3:
         7c:b2:b3:03:65:bd:b8:b5:85:bb:6f:b1:a0:65:8a:43:3d:86:
         e2:18:fe:65:76:89:f3:b1:34:4e:7b:d7:4d:19:7e:bc:46:2a:
         ec:11:33:ac:11:9a:cc:78:34:c9:29:5f:b7:56:ef:71:10:e6:
         5b:f6:2c:41:ef:7c:b3:21:87:ec:21:9f:cf:67:de:ca:02:b9:
         0e:f7:9d:bc:87:ee:58:0f:b3:ec:39:a8:bb:b2:60:51:c7:f8:
         0e:52:16:16:7c:d7:02:e4:57:fa:c9:a2:7c:6c:20:46:83:45:
         f1:86:33:31:23:9b:ea:43:8f:84:6a:81:2e:81:61:6a:7c:7a:
         78:f9:b7:d1:b3:dd:59:cd:91:9d:f8:5c:32:5e:ee:ca:78:08:
         fa:94:23:ab:86:70:1b:4b:12:d5:f6:e6:10:e6:e8:40:d1:b8:
         11:27:c9:08:04:72:d3:3d:82:dd:da:7f:b5:4c:8b:56:e1:d6:
         04:ac:df:99
-----BEGIN CERTIFICATE-----
MIICgTCCAWmgAwIBAgICEAEwDQYJKoZIhvcNAQELBQAwHDELMAkGA1UEChMCU0ox
DTALBgNVBAMTBFNKQ0EwHhcNMTYwOTI5MTQwOTQ4WhcNMTcwOTI5MTQwOTQ4WjBQ
MQswCQYDVQQKDAJTSjEtMCsGA1UELhMkMmE0NGJkYzgtNGY4Yy00NDc3LWFhZGUt
ZmJiMzZiMDRjZTIxMRIwEAYDVQQDDAlTSisrKytFTFgwWTATBgcqhkjOPQIBBggq
hkjOPQMBBwNCAASktZyENQs3yPOZD+Fl1Ld3L+wh/pceYHVwxBAVTcItQj5R6N+6
svCC9GxqV5eIFSuwCkydhO+v+DeYuc8TZ3nko2QwYjAdBgNVHQ4EFgQUKNaOwV8v
O+P4x4EcYyZrGvYmtxIwNgYDVR0jBC8wLaEgpB4wHDELMAkGA1UEChMCU0oxDTAL
BgNVBAMTBFNKQ0GCCQCUB76G+vZqJjAJBgNVHRMEAjAAMA0GCSqGSIb3DQEBCwUA
A4IBAQAx/qEuuCBVmzgdYqTxbRwzgRGfHj1wZu3AdANgrhG+ldILkc3IusHDCjBb
L9M2tuO3TC9K9ji0ZTPDiVrh3Rn9+YUeWLLmION8srMDZb24tYW7b7GgZYpDPYbi
GP5ldonzsTROe9dNGX68RirsETOsEZrMeDTJKV+3Vu9xEOZb9ixB73yzIYfsIZ/P
Z97KArkO9528h+5YD7PsOai7smBRx/gOUhYWfNcC5Ff6yaJ8bCBGg0XxhjMxI5vq
Q4+EaoEugWFqfHp4+bfRs91ZzZGd+FwyXu7KeAj6lCOrhnAbSxLV9uYQ5uhA0bgR
J8kIBHLTPYLd2n+1TItW4dYErN+Z
-----END CERTIFICATE-----
