Certificate:
    Data:
        Version: 3 (0x2)
        Serial Number: 4097 (0x1001)
    Signature Algorithm: sha256WithRSAEncryption
        Issuer: O=testdomain, CN=testdomainCA
        Validity
            Not Before: Jun 10 10:15:57 2016 GMT
            Not After : Jun  9 10:15:57 2021 GMT
        Subject: O=testdomain/dnQualifier=b19e5879-058a-4daf-8ce9-5d888f3a0680, CN=com.ericsson++++laptop
        Subject Public Key Info:
            Public Key Algorithm: id-ecPublicKey
                Public-Key: (256 bit)
                pub: 
                    04:28:ff:d0:81:88:76:72:6d:3a:d1:9c:21:fd:77:
                    80:1e:6f:e7:13:e4:e6:bc:fa:05:f6:4e:a6:b2:74:
                    9c:0a:20:6f:d8:65:d3:6c:f0:5c:ad:b6:9a:4b:9e:
                    ce:4a:6b:5a:f9:74:72:da:ef:da:fc:2f:85:15:2f:
                    9b:11:fd:27:19
                ASN1 OID: prime256v1
        X509v3 extensions:
            X509v3 Subject Key Identifier: 
                3F:5B:E5:2A:13:1B:7F:D1:87:16:0E:62:D3:AE:D0:43:F4:CC:C4:46
            X509v3 Authority Key Identifier: 
                DirName:/O=testdomain/CN=testdomainCA
                serial:EE:79:A9:FE:1E:71:44:35

            X509v3 Basic Constraints: 
                CA:FALSE
    Signature Algorithm: sha256WithRSAEncryption
         c8:72:15:bd:9f:ab:e6:69:b3:da:5f:94:0d:e9:11:f0:8e:b1:
         2a:d5:fe:d0:ff:c0:bc:26:07:59:a8:02:a3:32:bf:d5:2b:d0:
         d0:ea:a3:cb:b0:f8:71:79:f7:4e:e3:a8:7f:c6:87:06:30:ad:
         7b:b3:5b:94:56:5c:0a:27:50:1b:b3:58:ea:87:23:dc:10:78:
         9a:3c:cb:cb:7a:a2:a6:9e:06:4d:0e:e2:4b:75:dd:91:e8:83:
         f8:b4:a7:62:43:67:cf:44:e2:96:83:a5:64:10:0c:18:81:e9:
         71:e2:a0:d1:79:de:e3:ef:96:37:61:48:27:0d:8a:b3:f2:f0:
         60:e3:73:4e:72:57:07:f2:1f:f3:74:9e:2c:ae:4e:5a:58:14:
         ad:89:51:d0:41:d8:71:d8:84:49:8a:eb:52:3e:c4:dc:02:a9:
         34:5a:c4:8d:88:16:fa:c0:e3:6c:b1:60:a1:06:68:37:95:a7:
         e5:40:13:0c:6a:64:de:a3:09:55:31:19:22:fe:af:88:59:03:
         e8:01:f6:88:41:a5:76:5c:61:e1:6e:80:e0:a0:91:90:00:32:
         fc:c0:3d:a3:51:a3:97:cc:c2:71:6e:97:10:67:d2:a8:23:79:
         3d:d1:9d:32:28:e7:70:79:49:da:94:83:4e:94:8f:ee:de:50:
         99:fe:44:0c
-----BEGIN CERTIFICATE-----
MIICtjCCAZ6gAwIBAgICEAEwDQYJKoZIhvcNAQELBQAwLDETMBEGA1UEChMKdGVz
dGRvbWFpbjEVMBMGA1UEAxMMdGVzdGRvbWFpbkNBMB4XDTE2MDYxMDEwMTU1N1oX
DTIxMDYwOTEwMTU1N1owZTETMBEGA1UECgwKdGVzdGRvbWFpbjEtMCsGA1UELhMk
YjE5ZTU4NzktMDU4YS00ZGFmLThjZTktNWQ4ODhmM2EwNjgwMR8wHQYDVQQDDBZj
b20uZXJpY3Nzb24rKysrbGFwdG9wMFkwEwYHKoZIzj0CAQYIKoZIzj0DAQcDQgAE
KP/QgYh2cm060Zwh/XeAHm/nE+TmvPoF9k6msnScCiBv2GXTbPBcrbaaS57OSmta
+XRy2u/a/C+FFS+bEf0nGaN0MHIwHQYDVR0OBBYEFD9b5SoTG3/RhxYOYtOu0EP0
zMRGMEYGA1UdIwQ/MD2hMKQuMCwxEzARBgNVBAoTCnRlc3Rkb21haW4xFTATBgNV
BAMTDHRlc3Rkb21haW5DQYIJAO55qf4ecUQ1MAkGA1UdEwQCMAAwDQYJKoZIhvcN
AQELBQADggEBAMhyFb2fq+Zps9pflA3pEfCOsSrV/tD/wLwmB1moAqMyv9Ur0NDq
o8uw+HF5907jqH/GhwYwrXuzW5RWXAonUBuzWOqHI9wQeJo8y8t6oqaeBk0O4kt1
3ZHog/i0p2JDZ89E4paDpWQQDBiB6XHioNF53uPvljdhSCcNirPy8GDjc05yVwfy
H/N0niyuTlpYFK2JUdBB2HHYhEmK61I+xNwCqTRaxI2IFvrA42yxYKEGaDeVp+VA
EwxqZN6jCVUxGSL+r4hZA+gB9ohBpXZcYeFugOCgkZAAMvzAPaNRo5fMwnFulxBn
0qgjeT3RnTIo53B5SdqUg06Uj+7eUJn+RAw=
-----END CERTIFICATE-----
