Certificate:
    Data:
        Version: 3 (0x2)
        Serial Number: 4103 (0x1007)
    Signature Algorithm: sha256WithRSAEncryption
        Issuer: O=testdomain, CN=testCA
        Validity
            Not Before: Mar 16 13:48:00 2016 GMT
            Not After : Mar 16 13:48:00 2017 GMT
        Subject: O=testdomain/dnQualifier=163ad7ad-a03d-47ef-886d-9b94cffb3d6b, CN=org.testexample++++testNode4
        Subject Public Key Info:
            Public Key Algorithm: id-ecPublicKey
                Public-Key: (256 bit)
                pub: 
                    04:f7:3d:b1:7f:b6:a6:f7:06:71:27:f9:08:4d:5a:
                    8b:f1:fd:d2:4f:4b:c4:05:1e:72:6d:cf:91:04:63:
                    a1:33:3c:d0:33:d6:a9:a0:4a:cf:5b:f7:25:31:70:
                    60:34:53:39:bc:e6:f6:cc:dc:e7:b0:15:4a:19:52:
                    3e:fc:c5:60:8a
                ASN1 OID: prime256v1
        X509v3 extensions:
            X509v3 Subject Key Identifier: 
                4A:DC:28:19:71:04:87:0A:CC:A6:2A:78:E7:F4:9C:45:67:22:9D:EE
            X509v3 Authority Key Identifier: 
                DirName:/O=testdomain/CN=testCA
                serial:92:AC:B0:57:2D:08:61:1C

            X509v3 Basic Constraints: 
                CA:FALSE
    Signature Algorithm: sha256WithRSAEncryption
         0b:7b:bb:27:f9:25:64:c9:6c:ea:39:ed:ea:33:57:df:4b:9b:
         10:e4:16:29:0c:f8:fb:bd:1a:68:7e:dd:34:69:09:6a:b8:03:
         c8:55:51:05:90:6f:e3:88:cc:2b:7d:58:cc:1c:43:6f:26:36:
         32:c9:86:18:6b:48:a5:08:ab:89:c0:dc:49:84:a2:13:de:55:
         1b:2f:2e:1b:e5:d5:f0:a0:68:42:78:3a:9a:69:5f:bd:97:a6:
         21:db:31:7d:7c:a4:08:1f:a9:64:8e:db:31:9c:a1:c0:bf:3b:
         ea:47:5d:63:e7:a7:62:cc:c4:65:fa:dd:c8:e3:68:14:12:99:
         27:98:6b:65:95:67:7d:d3:e6:90:a3:c7:8c:ba:c2:e6:1f:61:
         c7:13:36:54:48:2c:3c:8c:cf:ed:99:c5:a8:d7:4a:b5:e9:8a:
         b6:e8:50:91:f1:b4:51:dc:ab:72:26:9d:a3:9b:67:e4:1d:37:
         c8:55:6c:da:f8:54:38:cf:47:f5:ca:c0:d2:9c:ae:eb:d9:24:
         a1:fa:aa:5c:6f:dc:87:9a:27:7c:d1:2b:1b:90:43:36:57:05:
         63:02:68:9d:8e:8d:d3:ab:0b:0e:aa:c8:5a:12:dd:d7:1d:f7:
         99:f8:24:a0:ed:84:af:ce:11:6c:f1:89:8e:4f:bf:25:f9:01:
         41:58:34:01
-----BEGIN CERTIFICATE-----
MIICsDCCAZigAwIBAgICEAcwDQYJKoZIhvcNAQELBQAwJjETMBEGA1UEChMKdGVz
dGRvbWFpbjEPMA0GA1UEAxMGdGVzdENBMB4XDTE2MDMxNjEzNDgwMFoXDTE3MDMx
NjEzNDgwMFowazETMBEGA1UECgwKdGVzdGRvbWFpbjEtMCsGA1UELhMkMTYzYWQ3
YWQtYTAzZC00N2VmLTg4NmQtOWI5NGNmZmIzZDZiMSUwIwYDVQQDDBxvcmcudGVz
dGV4YW1wbGUrKysrdGVzdE5vZGU0MFkwEwYHKoZIzj0CAQYIKoZIzj0DAQcDQgAE
9z2xf7am9wZxJ/kITVqL8f3ST0vEBR5ybc+RBGOhMzzQM9apoErPW/clMXBgNFM5
vOb2zNznsBVKGVI+/MVgiqNuMGwwHQYDVR0OBBYEFErcKBlxBIcKzKYqeOf0nEVn
Ip3uMEAGA1UdIwQ5MDehKqQoMCYxEzARBgNVBAoTCnRlc3Rkb21haW4xDzANBgNV
BAMTBnRlc3RDQYIJAJKssFctCGEcMAkGA1UdEwQCMAAwDQYJKoZIhvcNAQELBQAD
ggEBAAt7uyf5JWTJbOo57eozV99LmxDkFikM+Pu9Gmh+3TRpCWq4A8hVUQWQb+OI
zCt9WMwcQ28mNjLJhhhrSKUIq4nA3EmEohPeVRsvLhvl1fCgaEJ4OpppX72XpiHb
MX18pAgfqWSO2zGcocC/O+pHXWPnp2LMxGX63cjjaBQSmSeYa2WVZ33T5pCjx4y6
wuYfYccTNlRILDyMz+2ZxajXSrXpirboUJHxtFHcq3ImnaObZ+QdN8hVbNr4VDjP
R/XKwNKcruvZJKH6qlxv3IeaJ3zRKxuQQzZXBWMCaJ2OjdOrCw6qyFoS3dcd95n4
JKDthK/OEWzxiY5PvyX5AUFYNAE=
-----END CERTIFICATE-----
